


ARM Macro Assembler    Page 1 


    1 00000000         ;LED 闪烁
    2 00000000                 PRESERVE8
    3 00000000                 THUMB
    4 00000000         ;----------------------------------------
    5 00000000         ;分配数据变量空间
    6 00000000                 AREA             |Header Data|, DATA
    7 00000000                 ALIGN            4
    8 00000000         ;*********DEFINE RAM *************************
    9 00000000 01      SECOND  DCB              1
   10 00000001 01      MINUTE  DCB              1
   11 00000002 01      HOUR    DCB              1
   12 00000003 01      US      DCB              1
   13 00000004 01      MS      DCB              1
   14 00000005         ;BUZCNT:  DCB      1
   15 00000005 01      FANMS   DCB              1
   16 00000006 01      FANSE   DCB              1           ;???????(20MS/1)
   17 00000007 01      ZJMS    DCB              1
   18 00000008 01      HYFKMS  DCB              1
   19 00000009         ;FLAG1   DCB      1
   20 00000009 01      BUZF    DCB              1
   21 0000000A 01      LCWRO   DCB              1
   22 0000000B 01      KP      DCB              1
   23 0000000C 01      KM      DCB              1
   24 0000000D 01      BGYF    DCB              1
   25 0000000E 01      STOKF   DCB              1
   26 0000000F 01      KP1     DCB              1
   27 00000010 01      KM1     DCB              1
   28 00000011         ;FLAG2        DCB      1
   29 00000011 01      WHATERKGF
                               DCB              1           ;??????
   30 00000012 01      SLSTF   DCB              1
   31 00000013 01      XJYF    DCB              1
   32 00000014 01      FIRAF   DCB              1           ;???1?????????
   33 00000015 01      FIRBF   DCB              1           ;???2?????????
   34 00000016 01      FIRCF   DCB              1           ;???3?????????
   35 00000017 01      RDWRF   DCB              1
   36 00000018 01      P11F    DCB              1
   37 00000019 01      DHMS    DCB              1
   38 0000001A 01      DHSEC   DCB              1
   39 0000001B 01      MNUM    DCB              1
   40 0000001C 01      ADVAL   DCB              1
   41 0000001D 01      ADTMP   DCB              1           ;0FH
   42 0000001E 01      ADTMPS  DCB              1           ;0FH
   43 0000001F         ;
   44 0000001F 01      FSMS    DCB              1
   45 00000020 01      ZFFKGDPMS
                               DCB              1
   46 00000021 01      ZFFKDDPMS
                               DCB              1
   47 00000022 01      LCTMP   DCB              1           ;????
   48 00000023 01      LCVAL   DCB              1
   49 00000024 01      ADSEC   DCB              1
   50 00000025 01      ADSECP  DCB              1
   51 00000026 01      LCTMPV  DCB              1
   52 00000027         
   53 00000027 01      INTLF   DCB              1
   54 00000028         ;MDVP:   DCB      1
   55 00000028         ;FLAG3   DCB      1
   56 00000028 01      GDPF    DCB              1



ARM Macro Assembler    Page 2 


   57 00000029 01      JSOVRF  DCB              1
   58 0000002A 01      FDFYHF  DCB              1           ;??????
   59 0000002B 01      ON      DCB              1
   60 0000002C 01      FJQQSOKF
                               DCB              1
   61 0000002D 01      HYQZZDF DCB              1
   62 0000002E 01      HYQZZXF DCB              1
   63 0000002F 01      JHYF    DCB              1
   64 00000030 01      INTHF   DCB              1
   65 00000031 01      OUTTMP  DCB              1
   66 00000032         ;OUTTMPFR:  DCB      1
   67 00000032         ;FLAG4   DCB      1     ;1FH
   68 00000032 01      FJHQSOKF
                               DCB              1           ;???????????
   69 00000033 01      FJQDF   DCB              1           ;??????
   70 00000034 01      DHWRO   DCB              1           ;??????
   71 00000035 01      GFJF    DCB              1           ;??????
   72 00000036 01      XKGZF   DCB              1           ;?????????
   73 00000037 01      KZDFF   DCB              1           ;????????
   74 00000038 01      WXFKJF  DCB              1
   75 00000039 01      GCMF    DCB              1
   76 0000003A         ;FLAG5   DCB      1
   77 0000003A 01      GRBF    DCB              1           ;??????
   78 0000003B 01      ZJYHF   DCB              1
   79 0000003C 01      XSCJJRF DCB              1
   80 0000003D 01      BUZBJF  DCB              1
   81 0000003E 01      JRH30MF DCB              1           ;??????
   82 0000003F 01      FJGZF   DCB              1           ;??????
   83 00000040 01      GRBXSGZF
                               DCB              1           ;???????
   84 00000041 01      FJTJOKF DCB              1           ;??????????????
   85 00000042         ;
   86 00000042         ;FLAG6   DCB      1
   87 00000042 01      INFJHQS DCB              1           ;?????????
   88 00000043 01      DHOKF   DCB              1           ;????????
   89 00000044 01      GDFSF   DCB              1
   90 00000045 01      ZYXQF   DCB              1           ;???????????
   91 00000046 01      LDWER   DCB              1           ;???????
   92 00000047 01      XKQAF   DCB              1           ;???1??
   93 00000048 01      XKQBF   DCB              1           ;???2??
   94 00000049 01      XKQCF   DCB              1           ;???3??
   95 0000004A 01      LCDBUF  DCB              1
   96 0000004B 01      LCDBUF1 DCB              1
   97 0000004C         ;FJMCH:   DCB      1  ;??????????
   98 0000004C         ;FJMC:   DCB      1  ;??????????
   99 0000004C 01      MBMC    DCB              1           ;?????????0.5?????(
                                                            4????)
  100 0000004D 01      HQSSEC  DCB              1
  101 0000004E 01      DQFSV   DCB              1           ;????????????
  102 0000004F 01      DQFSVHB DCB              1           ;????????????
  103 00000050 01      FANSEC  DCB              1
  104 00000051         ;FJTSMS:  DCB      1  ;???????????????
  105 00000051 01      DQFSMM  DCB              1           ;???????0.5?????
  106 00000052 01      MBBLFPWM
                               DCB              1           ;??????????PWM?
  107 00000053 01      BLFPWM  DCB              1
  108 00000054         ;HYADVAL:  DCB      1
  109 00000054 01      ADNUMP  DCB              1
  110 00000055 01      ADVAL1P DCB              1



ARM Macro Assembler    Page 3 


  111 00000056 01      ADVAL2P DCB              1
  112 00000057 01      FJGZSEC DCB              1
  113 00000058         ;FANTJMS:  DCB      1 ;?????????????(20MS/1)
  114 00000058 01      GWSEC   DCB              1
  115 00000059 01      JRMIN   DCB              1
  116 0000005A 01      MBFANTMSV
                               DCB              1
  117 0000005B 01      AJVAL   DCB              1
  118 0000005C 01      XKATXSEC
                               DCB              1
  119 0000005D 01      XKBTXSEC
                               DCB              1
  120 0000005E 01      XKCTXSEC
                               DCB              1
  121 0000005F 01      YHYFKMS DCB              1
  122 00000060 01      NHYFKMS DCB              1
  123 00000061         
  124 00000061         
  125 00000061         ;FLAG7   DCB      1          ;3FH
  126 00000061 01      BXSGZF  DCB              1           ;???????
  127 00000062 01      NHYFKF  DCB              1           ;?????/??????
  128 00000063 01      JDQKGF  DCB              1
  129 00000064 01      XSSLSTF DCB              1
  130 00000065 01      WUSXYF  DCB              1           ;????1?/?
  131 00000066 01      QSLFDF  DCB              1
  132 00000067 01      TBJSJFP DCB              1
  133 00000068 01      CSSDBZF DCB              1
  134 00000069         ;FLAG8   DCB      1          ;3FH
  135 00000069 01      TBLFF   DCB              1           ;???????
  136 0000006A 01      HYFKF   DCB              1           ;?????/??????
  137 0000006B 01      YHQF    DCB              1
  138 0000006C 01      TRQF    DCB              1
  139 0000006D 01      FIRXSBF DCB              1
  140 0000006E 01      XSBF    DCB              1
  141 0000006F 01      JYWRF   DCB              1
  142 00000070 01      HDXFF   DCB              1
  143 00000071         ;FLAG9   DCB      1
  144 00000071 01      FSBJTJF DCB              1           ;??????100R/M
  145 00000072 01      XVLZFF  DCB              1
  146 00000073 01      YZFF    DCB              1
  147 00000074 01      PIDZFF  DCB              1
  148 00000075 01      DLTQF   DCB              1
  149 00000076 01      DLTQXYF DCB              1
  150 00000077 01      EKVALZFF
                               DCB              1
  151 00000078 01      DLTQVLZFF
                               DCB              1
  152 00000079 01      FJGZMS  DCB              1           ;?????????
  153 0000007A 01      XSBTXSEC
                               DCB              1
  154 0000007B 01      MBBLFPWMV
                               DCB              1           ;??????????PWM?
  155 0000007C 01      MBFANTMSMINV
                               DCB              1           ;??????????????????
                                                            ????
  156 0000007D 01      MBFANTMSMAXV
                               DCB              1           ;??????????????????
                                                            ????
  157 0000007E 01      MAXSEC  DCB              1



ARM Macro Assembler    Page 4 


  158 0000007F 01      MINSEC  DCB              1
  159 00000080         
  160 00000080 01      DTUS    DCB              1
  161 00000081 01      DTUSP   DCB              1
  162 00000082 01      CXMS    DCB              1           ;????????????????
  163 00000083         ;BLFTSMS:       DCB      1  ;????????????????
  164 00000083         
  165 00000083 01      XVL     DCB              1
  166 00000084         ;XVLP:   DCB      1
  167 00000084 01      PIDVL   DCB              1
  168 00000085         
  169 00000085 01      ADNUM   DCB              1
  170 00000086 01      ADVAL1  DCB              1
  171 00000087 01      ADVAL2  DCB              1           ;5BH
  172 00000088 01      LPTT    DCB              1
  173 00000089 01      HPT     DCB              1
  174 0000008A 01      HFVL    DCB              1
  175 0000008B 01      TXNUM   DCB              1
  176 0000008C         
  177 0000008C 01      GRBXSZCMS
                               DCB              1
  178 0000008D 01      GRBXSDKMS
                               DCB              1
  179 0000008E         ;;;;;;;;;????;;;;;;;;;;;;;;;
  180 0000008E 01      WORK    DCB              1
  181 0000008F         ;RDATA:   DCB   1
  182 0000008F 01      RDATAV  DCB              1
  183 00000090         
  184 00000090         
  185 00000090 01      STWD    DCB              1
  186 00000091 01      MBIT    DCB              1
  187 00000092         ;*********************????******************************
                       *
  188 00000092 01      TDATA0  DCB              1
  189 00000093 01      TDATA1  DCB              1
  190 00000094 01      TDATA2  DCB              1
  191 00000095 01      TDATA3  DCB              1
  192 00000096 01      TDATA4  DCB              1
  193 00000097 01      TDATA5  DCB              1
  194 00000098         
  195 00000098 01      QYL0    DCB              1           ;?????
  196 00000099 01      WHATVAL DCB              1
  197 0000009A 01      WHATVALP
                               DCB              1
  198 0000009B         ;ONSEC:   DCB          1
  199 0000009B 01      LDTMP   DCB              1           ;????
  200 0000009C 01      LDVAL   DCB              1
  201 0000009D 01      DLTQVL  DCB              1           ;??????
  202 0000009E 01      QYL0VL  DCB              1
  203 0000009F 01      QYL0VLP DCB              1           ;???????
  204 000000A0 01      NOWQYL0 DCB              1           ;????????????
  205 000000A1 01      YXQYL0  DCB              1           ;???????
  206 000000A2 01      WDNBHSEC
                               DCB              1           ;??????????
  207 000000A3 01      QQSMS   DCB              1
  208 000000A4 01      KIEK    DCB              1
  209 000000A5 01      ADVVL   DCB              1
  210 000000A6 01      ADVVLP  DCB              1
  211 000000A7 01      WRNUM   DCB              1



ARM Macro Assembler    Page 5 


  212 000000A8         
  213 000000A8 01      FANTMS  DCB              1           ;?????????????
  214 000000A9 01      MBFANTMSL
                               DCB              1           ;??????????????????
                                                            ??
  215 000000AA 01      MBFANTMSH
                               DCB              1
  216 000000AB 01      MBFANTMSLV
                               DCB              1           ;??????????????????
                                                            ??
  217 000000AC 01      MBFANTMSHV
                               DCB              1
  218 000000AD 01      YVL     DCB              1
  219 000000AE         ;YVLP:   DCB     1
  220 000000AE 01      BUZMS   DCB              1
  221 000000AF 01      SLUSL1  DCB              1
  222 000000B0 01      BUZCNT  DCB              1
  223 000000B1 01      SLUSL2  DCB              1
  224 000000B2 01      AJVALP  DCB              1
  225 000000B3 01      SLNUM   DCB              1
  226 000000B4 01      SLUSL   DCB              1
  227 000000B5 01      TUS     DCB              1
  228 000000B6 01      SLUSLP  DCB              1           ;?????
  229 000000B7 01      NSSMIN  DCB              1
  230 000000B8 01      DXFSEC  DCB              1
  231 000000B9 01      ZXHNUM  DCB              1
  232 000000BA         ;AVL:   DCB     1
  233 000000BA 01      EK      DCB              1
  234 000000BB 01      EK_0    DCB              1
  235 000000BC 01      SI      DCB              1
  236 000000BD 01      SI_0    DCB              1
  237 000000BE 01      ED      DCB              1
  238 000000BF 01      KPD     DCB              1
  239 000000C0 01      KI      DCB              1
  240 000000C1 01      KD      DCB              1
  241 000000C2 01      DAP     DCB              1
  242 000000C3 01      DAI     DCB              1
  243 000000C4 01      DAD     DCB              1
  244 000000C5         ;NK:   DCB     1
  245 000000C5         ;DLTEK:   DCB     1
  246 000000C5         ;DLTEK_1:  DCB     1
  247 000000C5         ;NKI:   DCB     1
  248 000000C5         ;XVLP:   DCB     1
  249 000000C5         ;YVLP:   DCB     1
  250 000000C5 01      AVL     DCB              1
  251 000000C6 01      JYMS    DCB              1
  252 000000C7 01      LEDP    DCB              1
  253 000000C8 01      LEDT    DCB              1
  254 000000C9 01      PB1     DCB              1
  255 000000CA 01      PB2     DCB              1
  256 000000CB 01      PB3     DCB              1
  257 000000CC 01      PB4     DCB              1
  258 000000CD 01      DCUNT   DCB              1
  259 000000CE 01      EKMS    DCB              1
  260 000000CF 01      STSEC   DCB              1
  261 000000D0         ;FLAG10   DCB     1
  262 000000D0 01      CSSDF   DCB              1
  263 000000D1 01      LCM10SF DCB              1
  264 000000D2 01      CMF     DCB              1



ARM Macro Assembler    Page 6 


  265 000000D3 01      WXTXF   DCB              1
  266 000000D4 01      HJF     DCB              1
  267 000000D5 01      SLBJ1F  DCB              1
  268 000000D6 01      SLBJ2F  DCB              1
  269 000000D7 01      SLBJ3F  DCB              1
  270 000000D8         ;FLAG11   DCB     1
  271 000000D8 01      JSOKVRF DCB              1
  272 000000D9 01      TZHF    DCB              1
  273 000000DA 01      TDHF    DCB              1
  274 000000DB 01      JYSTWF  DCB              1
  275 000000DC 01      CLXXEEROMF
                               DCB              1
  276 000000DD 01      M16SF   DCB              1
  277 000000DE 01      M20SF   DCB              1
  278 000000DF 01      M13SF   DCB              1
  279 000000E0 01      SLLNUM  DCB              1
  280 000000E1         ;IIC_WR:     DCB    1
  281 000000E1         ;IIC_FL:   DCB    1
  282 000000E1         ;I_RB        DCB     0,IIC_FL      ;IIC READ FLAG BITE I
                       N UNIT OF IIC_FL,IT IS "1" MEANS READ
  283 000000E1         ;IIC_AD:        DCB    1
  284 000000E1         ;IIC_DA:   DCB    1
  285 000000E1         ;IIC_CT:   DCB    1
  286 000000E1 01      TWOSECFJMCL
                               DCB              1
  287 000000E2 01      TWOSECFJMCH
                               DCB              1
  288 000000E3 01      ONESECFJMCL
                               DCB              1
  289 000000E4 01      ONESECFJMCH
                               DCB              1
  290 000000E5 01      HALFSECFJMC
                               DCB              1
  291 000000E6 01      SETTWOSECFJMCL
                               DCB              1
  292 000000E7 01      SETTWOSECFJMCH
                               DCB              1
  293 000000E8 01      SETONESECFJMCL
                               DCB              1
  294 000000E9 01      SETONESECFJMCH
                               DCB              1
  295 000000EA 01      SETHALFSECFJMC
                               DCB              1
  296 000000EB 01      HPVL    DCB              1
  297 000000EC 01      nOneSecond
                               DCB              1
  298 000000ED 01      nTwoSecond
                               DCB              1
  299 000000EE 01      nHalfSecond
                               DCB              1
  300 000000EF 01      MBOUTTMP
                               DCB              1
  301 000000F0 01      LDBCNUM DCB              1
  302 000000F1 01      QQSMSV  DCB              1
  303 000000F2         ;FFLAG   DCB     1
  304 000000F2 01      XSF     DCB              1
  305 000000F3 01      ZSF     DCB              1
  306 000000F4 01      DSF     DCB              1
  307 000000F5 01      KWTFIJRF



ARM Macro Assembler    Page 7 


                               DCB              1
  308 000000F6 01      RGMQ16SF
                               DCB              1
  309 000000F7 01      TRYH16SF
                               DCB              1
  310 000000F8 01      RGMQ11SF
                               DCB              1
  311 000000F9 01      TRYH11SF
                               DCB              1
  312 000000FA 01      WHATMS  DCB              1
  313 000000FB 01      XSSLLN  DCB              1
  314 000000FC 01      YHMS    DCB              1
  315 000000FD 01      PIDVLP  DCB              1
  316 000000FE 01      WHATV2  DCB              1
  317 000000FF 01      INWTSTWC
                               DCB              1
  318 00000100 01      FHQVL   DCB              1
  319 00000101         ;FLAG12   DCB     1
  320 00000101 01      M11SF   DCB              1
  321 00000102 01      RGQF    DCB              1
  322 00000103 01      TRYH13SF
                               DCB              1
  323 00000104 01      RGMQ13SF
                               DCB              1
  324 00000105 01      TRYH20SF
                               DCB              1
  325 00000106 01      RGMQ20SF
                               DCB              1
  326 00000107 01      YHF     DCB              1
  327 00000108 01      INHQFF  DCB              1
  328 00000109 01      Q0VLP1  DCB              1
  329 0000010A 01      Q0VLP2  DCB              1
  330 0000010B 01      Q0VLP3  DCB              1
  331 0000010C         ;FLAG13   DCB     1
  332 0000010C 01      YGMDF   DCB              1
  333 0000010D 01      YGONWTF DCB              1
  334 0000010E 01      XSSTWDF DCB              1
  335 0000010F 01      INHYJCF DCB              1
  336 00000110 01      RGQQYF  DCB              1
  337 00000111 01      JSYXPWMF
                               DCB              1
  338 00000112 01      COWARMF DCB              1
  339 00000113 01      CGI8F   DCB              1
  340 00000114         ;YHDHNUM   DCB     1
  341 00000114         ;FLAG14   DCB     1
  342 00000114 01      COLDWATERFULF
                               DCB              1
  343 00000115 01      CGI8TR16SF
                               DCB              1
  344 00000116 01      CGI8TR12SF
                               DCB              1
  345 00000117 01      BJNDHF  DCB              1
  346 00000118 01      WI7F    DCB              1
  347 00000119 01      CLCOWARMF
                               DCB              1
  348 0000011A 01      JLMDF   DCB              1
  349 0000011B         ;CSSDF   DCB     1
  350 0000011B 01      PB      DCB              1
  351 0000011C 01      WIAJVL  DCB              1           ;F5H



ARM Macro Assembler    Page 8 


  352 0000011D         ;===============================================
  353 0000011D 01      PAG10   DCB              1
  354 0000011E 01      LCCMD1  DCB              1
  355 0000011F 01      LCCMD2  DCB              1
  356 00000120 01      LCCMD3  DCB              1
  357 00000121 01      LCCMD4  DCB              1
  358 00000122 01      LCCMD5  DCB              1
  359 00000123 01      LCCMD6  DCB              1
  360 00000124 01      LCCMD7  DCB              1
  361 00000125 01      LCCMD8  DCB              1
  362 00000126 01      LCCMD9  DCB              1
  363 00000127         ;PB:  DCB     1
  364 00000127 01      FYMS    DCB              1
  365 00000128 01      SLMS    DCB              1
  366 00000129 01      QZAJADVL
                               DCB              1
  367 0000012A 01      CXAJSEC DCB              1
  368 0000012B 01      FSDTMS  DCB              1
  369 0000012C 01      AJVVP   DCB              1
  370 0000012D 01      STWDP   DCB              1
  371 0000012E 01      BGYSEC  DCB              1
  372 0000012F 01      SLLSEC  DCB              1
  373 00000130 01      SLLSECP DCB              1
  374 00000131 01      SLLNUMP1
                               DCB              1           ;?????
  375 00000132 01      SLLNUMP1V
                               DCB              1
  376 00000133 01      SLLNUMP2
                               DCB              1           ;?????
  377 00000134 01      BMVAL1  DCB              1
  378 00000135 01      BMVAL2  DCB              1
  379 00000136 01      BLFMS   DCB              1
  380 00000137 01      DHOKSEC DCB              1
  381 00000138 01      EKIS0SEC
                               DCB              1
  382 00000139 01      EKIS0SECS
                               DCB              1
  383 0000013A         ;DLTQ0VL: DCB     1
  384 0000013A         ;DLTFSV:  DCB     1
  385 0000013A 01      FJMCJCSEC
                               DCB              1
  386 0000013B 01      AJMSP   DCB              1
  387 0000013C 01      QZAJMSP DCB              1
  388 0000013D 01      WREENUM DCB              1
  389 0000013E 01      DTNUM   DCB              1
  390 0000013F 01      WCTT    DCB              1
  391 00000140 01      YHNUM   DCB              1
  392 00000141 01      WHATVALPV
                               DCB              1
  393 00000142 01      DLTQVLP DCB              1
  394 00000143 01      QYL0P   DCB              1
  395 00000144 01      JUYHSEC DCB              1           ;!!
  396 00000145 01      PIDNUM  DCB              1
  397 00000146         ;LCTMP2:  DCB     1
  398 00000146         ;LCTMP3:  DCB     1
  399 00000146         ;LCTMP4:  DCB     1
  400 00000146 01      YHSEC   DCB              1           ;!!
  401 00000147 01      KSJRSEC DCB              1
  402 00000148 01      WHATSEC DCB              1



ARM Macro Assembler    Page 9 


  403 00000149 01      WHATV1  DCB              1
  404 0000014A 01      QOCJJRVL
                               DCB              1
  405 0000014B 01      FANCHMS DCB              1
  406 0000014C 01      KFYHSEC DCB              1
  407 0000014D 01      GFYHSEC DCB              1
  408 0000014E 01      CUNSLMS DCB              1
  409 0000014F 01      YVLP    DCB              1
  410 00000150 01      QQNUM   DCB              1
  411 00000151 01      Q0MS    DCB              1
  412 00000152 01      JSNUM   DCB              1
  413 00000153 01      JSNUM1  DCB              1
  414 00000154 01      JSNUM2  DCB              1
  415 00000155 01      SLLNUMV DCB              1
  416 00000156 01      BZSTWD  DCB              1
  417 00000157 01      YGSTWD  DCB              1
  418 00000158 01      NWHATMS DCB              1
  419 00000159 01      NWHATSEC
                               DCB              1
  420 0000015A 01      COLDWATERSEC
                               DCB              1
  421 0000015B 01      NCOLDWATERSEC
                               DCB              1
  422 0000015C 01      SLLMLMS DCB              1
  423 0000015D 01      LEDKEYBUF1
                               DCB              1
  424 0000015E 01      LEDKEYBUF2
                               DCB              1
  425 0000015F 01      LEDKEYBUF3
                               DCB              1
  426 00000160 01      LEDKEYBUF4
                               DCB              1
  427 00000161 01      P04OUTMS
                               DCB              1
  428 00000162 01      COGZNUM DCB              1
  429 00000163 01      CLCOGZNUM
                               DCB              1
  430 00000164 01      CLCOGZMIN
                               DCB              1
  431 00000165 01      PBB0    DCB              1
  432 00000166 01      PBB1    DCB              1
  433 00000167 01      PBB2    DCB              1
  434 00000168 01      PBB3    DCB              1
  435 00000169 01      PBB4    DCB              1
  436 0000016A 01      PBB5    DCB              1
  437 0000016B 01      PBB6    DCB              1
  438 0000016C 01      PBB7    DCB              1
  439 0000016D 01      PBB8    DCB              1
  440 0000016E 01      PBB9    DCB              1
  441 0000016F 01      PBB10   DCB              1
  442 00000170 01      WINUM   DCB              1
  443 00000171 01      EINUM   DCB              1
  444 00000172         ;CSSDSEC:  DCB     1
  445 00000172         
  446 00000172         ;TM1638_SCK           DCB            2,P0   ;LCD ????(m3
                       )
  447 00000172         ;TM1638_STB           DCB            1,P0   ;LCD ????(m3
                       )
  448 00000172         ;TM1638_SDA_OUT       DCB            3,P0   ;LCD ????(m3



ARM Macro Assembler    Page 10 


                       )
  449 00000172         ;TM1638_DIO_IN        DCB            3,P0   ;LCD ????(m3
                       )
  450 00000172         
  451 00000172         ;-------------------------------------------
  452 00000172         ;代码区
  453 00000172                 AREA             |.text|, CODE, READONLY
  454 00000000                 INCLUDE          NUC029xx.hs
    1 00000000         ;基地址常量和寄存器偏移定义
    2 00000000         ;Cortex-M0
    3 00000000         ;FLASH & SRAM Memory Space
    4 00000000 00000000 
                       FLASH_BA
                               EQU              0X00000000
    5 00000000 20000000 
                       SRAM_BA EQU              0X20000000
    6 00000000         
    7 00000000         
    8 00000000         
    9 00000000         ;System Controllers Space
   10 00000000 E000E000 
                       SCS_BA  EQU              0XE000E000
   11 00000000 E000E100 
                       NVIC_BA EQU              0XE000E100
   12 00000000 E000E010 
                       SYST_BA EQU              0XE000E010
   13 00000000 E000ED00 
                       SCB_BA  EQU              0XE000ED00
   14 00000000         
   15 00000000         
   16 00000000         
   17 00000000         ;EBI Space
   18 00000000 60000000 
                       EBI_BA  EQU              0X60000000
   19 00000000         
   20 00000000         
   21 00000000         
   22 00000000         ;APB Controllers Space
   23 00000000 40004000 
                       WDT_BA  EQU              0X40004000  ;WWDT_BA           
                                                             EQU        0X40004
                                                            100
   24 00000000 40010000 
                       TMR01_BA
                               EQU              0X40010000
   25 00000000 40020000 
                       I2C_BA  EQU              0X40020000  ;I2C0_BA           
                                                             EQU        0X40020
                                                            000
   26 00000000 40030000 
                       SPI0_BA EQU              0X40030000
   27 00000000 40034000 
                       SPI1_BA EQU              0X40034000
   28 00000000 40040000 
                       PWMA_BA EQU              0X40040000
   29 00000000 40050000 
                       UART0_BA
                               EQU              0X40050000
   30 00000000 400D0000 



ARM Macro Assembler    Page 11 


                       ACMP_BA EQU              0X400D0000  ;ACMP01_BA         
                                                             EQU        0X400D0
                                                            000
   31 00000000 400E0000 
                       ADC_BA  EQU              0X400E0000
   32 00000000 40110000 
                       TMR23_BA
                               EQU              0X40110000  ;I2C1_BA           
                                                             EQU        0X40120
                                                            000 
   33 00000000 40140000 
                       PWMB_BA EQU              0X40140000
   34 00000000 40150000 
                       UART1_BA
                               EQU              0X40150000  ;ACMP23_BA         
                                                             EQU        0X401D0
                                                            000
   35 00000000         
   36 00000000         
   37 00000000         
   38 00000000         
   39 00000000         ;AHB Controllers Space
   40 00000000 50000000 
                       GCR_BA  EQU              0X50000000
   41 00000000 50000200 
                       CLK_BA  EQU              0X50000200
   42 00000000 50000300 
                       INT_BA  EQU              0X50000300
   43 00000000 50004000 
                       GPIO_BA EQU              0X50004000
   44 00000000 5000C000 
                       FMC_BA  EQU              0X5000C000
   45 00000000 50010000 
                       EBI_CTL_BA
                               EQU              0X50010000  ;HDIV_BA           
                                                             EQU        0X50014
                                                            000
   46 00000000         
   47 00000000         
   48 00000000         
   49 00000000         
   50 00000000         
   51 00000000         ;寄存器偏移
   52 00000000         ;1.系统管理器控制寄存器(GCR_BA)
   53 00000000 00000000 
                       PDID    EQU              0X00
   54 00000000 00000004 
                       RSTSRC  EQU              0X04
   55 00000000 00000008 
                       IPRSTC1 EQU              0X08
   56 00000000 0000000C 
                       IPRSTC2 EQU              0X0C
   57 00000000 00000018 
                       BODCR   EQU              0X18
   58 00000000 0000001C 
                       TEMPCR  EQU              0X1C
   59 00000000 00000024 
                       PORCR   EQU              0X24
   60 00000000 00000030 



ARM Macro Assembler    Page 12 


                       P0_MFP  EQU              0X30
   61 00000000 00000034 
                       P1_MFP  EQU              0X34
   62 00000000 00000038 
                       P2_MFP  EQU              0X38
   63 00000000 0000003C 
                       P3_MFP  EQU              0X3C
   64 00000000 00000040 
                       P4_MFP  EQU              0X40
   65 00000000 00000100 
                       REGWRPROT
                               EQU              0X100
   66 00000000         
   67 00000000         
   68 00000000         
   69 00000000         ;2.系统定时器控制寄存器(SCS_BA)
   70 00000000 00000010 
                       SYST_CSR
                               EQU              0X010
   71 00000000 00000014 
                       SYST_RVR
                               EQU              0X014
   72 00000000 00000018 
                       SYST_CVR
                               EQU              0X018
   73 00000000         
   74 00000000         
   75 00000000         
   76 00000000         ;3.NVIC控制寄存器(NVIC_BA)
   77 00000000 00000000 
                       NVIC_ISER
                               EQU              0X000       ;0XE000E100
   78 00000000 00000080 
                       NVIC_ICER
                               EQU              0X080       ;0XE000E180
   79 00000000 00000100 
                       NVIC_ISPR
                               EQU              0X100       ;0XE000E200
   80 00000000 00000180 
                       NVIC_ICPR
                               EQU              0X180       ;0XE000E280
   81 00000000 00000300 
                       NVIC_IPR0
                               EQU              0X300       ;0XE000E400
   82 00000000 00000304 
                       NVIC_IPR1
                               EQU              0X304       ;0XE000E404
   83 00000000 00000308 
                       NVIC_IPR2
                               EQU              0X308       ;0XE000E408
   84 00000000 0000030C 
                       NVIC_IPR3
                               EQU              0X30C       ;0XE000E40C
   85 00000000 00000310 
                       NVIC_IPR4
                               EQU              0X310       ;0XE000E410
   86 00000000 00000314 
                       NVIC_IPR5
                               EQU              0X314       ;0XE000E414



ARM Macro Assembler    Page 13 


   87 00000000 00000318 
                       NVIC_IPR6
                               EQU              0X318       ;0XE000E418
   88 00000000 0000031C 
                       NVIC_IPR7
                               EQU              0X31C       ;0XE000E41C
   89 00000000         
   90 00000000         
   91 00000000         ;3.2中断源控制寄存器(INT_BA)
   92 00000000 00000000 
                       IRQ0_SRC
                               EQU              0X00
   93 00000000 00000004 
                       IRQ1_SRC
                               EQU              0X04
   94 00000000 00000008 
                       IRQ2_SRC
                               EQU              0X08
   95 00000000 0000000C 
                       IRQ3_SRC
                               EQU              0X0C
   96 00000000 00000010 
                       IRQ4_SRC
                               EQU              0X10
   97 00000000 00000014 
                       IRQ5_SRC
                               EQU              0X14
   98 00000000 00000018 
                       IRQ6_SRC
                               EQU              0X18
   99 00000000 0000001C 
                       IRQ7_SRC
                               EQU              0X1C
  100 00000000 00000020 
                       IRQ8_SRC
                               EQU              0X20
  101 00000000 00000024 
                       IRQ9_SRC
                               EQU              0X24
  102 00000000 00000028 
                       IRQ10_SRC
                               EQU              0X28
  103 00000000 0000002C 
                       IRQ11_SRC
                               EQU              0X2C
  104 00000000 00000030 
                       IRQ12_SRC
                               EQU              0X30
  105 00000000 00000034 
                       IRQ13_SRC
                               EQU              0X34
  106 00000000 00000038 
                       IRQ14_SRC
                               EQU              0X38
  107 00000000 0000003C 
                       IRQ15_SRC
                               EQU              0X3C
  108 00000000 00000040 
                       IRQ16_SRC



ARM Macro Assembler    Page 14 


                               EQU              0X40
  109 00000000 00000044 
                       IRQ17_SRC
                               EQU              0X44
  110 00000000 00000048 
                       IRQ18_SRC
                               EQU              0X48
  111 00000000 0000004C 
                       IRQ19_SRC
                               EQU              0X4C
  112 00000000 00000050 
                       IRQ20_SRC
                               EQU              0X50
  113 00000000 00000054 
                       IRQ21_SRC
                               EQU              0X54
  114 00000000 00000058 
                       IRQ22_SRC
                               EQU              0X58
  115 00000000 0000005C 
                       IRQ23_SRC
                               EQU              0X5C
  116 00000000 00000060 
                       IRQ24_SRC
                               EQU              0X60
  117 00000000 00000064 
                       IRQ25_SRC
                               EQU              0X64
  118 00000000 00000068 
                       IRQ26_SRC
                               EQU              0X68
  119 00000000 0000006C 
                       IRQ27_SRC
                               EQU              0X6C
  120 00000000 00000070 
                       IRQ28_SRC
                               EQU              0X70
  121 00000000 00000074 
                       IRQ29_SRC
                               EQU              0X74
  122 00000000 00000078 
                       IRQ30_SRC
                               EQU              0X78
  123 00000000 0000007C 
                       IRQ31_SRC
                               EQU              0X7C
  124 00000000 00000080 
                       NMI_SEL EQU              0X80
  125 00000000 00000084 
                       MCU_IRQ EQU              0X84
  126 00000000         
  127 00000000         
  128 00000000         
  129 00000000         
  130 00000000         ;4.系统控制器寄存器(SCB_BA)
  131 00000000 00000000 
                       CPUID   EQU              0X000
  132 00000000 00000004 
                       ICSR    EQU              0X004



ARM Macro Assembler    Page 15 


  133 00000000 0000000C 
                       AIRCR   EQU              0X00C
  134 00000000 00000010 
                       SCR     EQU              0X010
  135 00000000 0000001C 
                       SHPR2   EQU              0X01C
  136 00000000 00000020 
                       SHPR3   EQU              0X020
  137 00000000         
  138 00000000         
  139 00000000         ;5.时钟控制寄存器(CLK_BA)
  140 00000000 00000000 
                       PWRCON  EQU              0X00
  141 00000000 00000004 
                       AHBCLK  EQU              0X04
  142 00000000 00000008 
                       APBCLK  EQU              0X08
  143 00000000 0000000C 
                       CLKSTATUS
                               EQU              0X0C
  144 00000000 00000010 
                       CLKSEL0 EQU              0X10
  145 00000000 00000014 
                       CLKSEL1 EQU              0X14
  146 00000000 00000018 
                       CLKDIV  EQU              0X18
  147 00000000 0000001C 
                       CLKSEL2 EQU              0X1C
  148 00000000 00000020 
                       PLLCON  EQU              0X20
  149 00000000 00000024 
                       FRQDIV  EQU              0X24
  150 00000000         
  151 00000000         
  152 00000000         
  153 00000000         
  154 00000000         ;6.PORT0-4控制器寄存器(GP_BA)
  155 00000000 00000000 
                       P0_PMD  EQU              0X000
  156 00000000 00000004 
                       P0_OFFD EQU              0X004
  157 00000000 00000008 
                       P0_DOUT EQU              0X008
  158 00000000 0000000C 
                       P0_DMASK
                               EQU              0X00C
  159 00000000 00000010 
                       P0_PIN  EQU              0X010
  160 00000000 00000014 
                       P0_DBEN EQU              0X014
  161 00000000 00000018 
                       P0_IMD  EQU              0X018
  162 00000000 0000001C 
                       P0_IEN  EQU              0X01C
  163 00000000 00000020 
                       P0_ISRC EQU              0X020
  164 00000000         
  165 00000000 00000040 
                       P1_PMD  EQU              0X040



ARM Macro Assembler    Page 16 


  166 00000000 00000044 
                       P1_OFFD EQU              0X044
  167 00000000 00000048 
                       P1_DOUT EQU              0X048
  168 00000000 0000004C 
                       P1_DMASK
                               EQU              0X04C
  169 00000000 00000050 
                       P1_PIN  EQU              0X050
  170 00000000 00000054 
                       P1_DBEN EQU              0X054
  171 00000000 00000058 
                       P1_IMD  EQU              0X058
  172 00000000 0000005C 
                       P1_IEN  EQU              0X05C
  173 00000000 00000060 
                       P1_ISRC EQU              0X060
  174 00000000         
  175 00000000 00000080 
                       P2_PMD  EQU              0X080
  176 00000000 00000084 
                       P2_OFFD EQU              0X084
  177 00000000 00000088 
                       P2_DOUT EQU              0X088
  178 00000000 0000008C 
                       P2_DMASK
                               EQU              0X08C
  179 00000000 00000090 
                       P2_PIN  EQU              0X090
  180 00000000 00000094 
                       P2_DBEN EQU              0X094
  181 00000000 00000098 
                       P2_IMD  EQU              0X098
  182 00000000 0000009C 
                       P2_IEN  EQU              0X09C
  183 00000000 000000A0 
                       P2_ISRC EQU              0X0A0
  184 00000000         
  185 00000000 000000C0 
                       P3_PMD  EQU              0X0C0
  186 00000000 000000C4 
                       P3_OFFD EQU              0X0C4
  187 00000000 000000C8 
                       P3_DOUT EQU              0X0C8
  188 00000000 000000CC 
                       P3_DMASK
                               EQU              0X0CC
  189 00000000 000000D0 
                       P3_PIN  EQU              0X0D0
  190 00000000 000000D4 
                       P3_DBEN EQU              0X0D4
  191 00000000 000000D8 
                       P3_IMD  EQU              0X0D8
  192 00000000 000000DC 
                       P3_IEN  EQU              0X0DC
  193 00000000 000000E0 
                       P3_ISRC EQU              0X0E0
  194 00000000         
  195 00000000 00000100 



ARM Macro Assembler    Page 17 


                       P4_PMD  EQU              0X100
  196 00000000 00000104 
                       P4_OFFD EQU              0X104
  197 00000000 00000108 
                       P4_DOUT EQU              0X108
  198 00000000 0000010C 
                       P4_DMASK
                               EQU              0X10C
  199 00000000 00000110 
                       P4_PIN  EQU              0X110
  200 00000000 00000114 
                       P4_DBEN EQU              0X114
  201 00000000 00000118 
                       P4_IMD  EQU              0X118
  202 00000000 0000011C 
                       P4_IEN  EQU              0X11C
  203 00000000 00000120 
                       P4_ISRC EQU              0X120
  204 00000000         
  205 00000000 00000180 
                       DBNCECON
                               EQU              0X180
  206 00000000         
  207 00000000 00000200 
                       P00_DOUT
                               EQU              0X200
  208 00000000 00000204 
                       P01_DOUT
                               EQU              0X204
  209 00000000 00000208 
                       P02_DOUT
                               EQU              0X208
  210 00000000 0000020C 
                       P03_DOUT
                               EQU              0X20C
  211 00000000 00000210 
                       P04_DOUT
                               EQU              0X210
  212 00000000 00000214 
                       P05_DOUT
                               EQU              0X214
  213 00000000 00000218 
                       P06_DOUT
                               EQU              0X218
  214 00000000 0000021C 
                       P07_DOUT
                               EQU              0X21C
  215 00000000         
  216 00000000 00000220 
                       P10_DOUT
                               EQU              0X220
  217 00000000 00000224 
                       P11_DOUT
                               EQU              0X224
  218 00000000 00000228 
                       P12_DOUT
                               EQU              0X228
  219 00000000 0000022C 
                       P13_DOUT



ARM Macro Assembler    Page 18 


                               EQU              0X22C
  220 00000000 00000230 
                       P14_DOUT
                               EQU              0X230
  221 00000000 00000234 
                       P15_DOUT
                               EQU              0X234
  222 00000000 00000238 
                       P16_DOUT
                               EQU              0X238
  223 00000000 0000023C 
                       P17_DOUT
                               EQU              0X23C
  224 00000000         
  225 00000000 00000240 
                       P20_DOUT
                               EQU              0X240
  226 00000000 00000244 
                       P21_DOUT
                               EQU              0X244
  227 00000000 00000248 
                       P22_DOUT
                               EQU              0X248
  228 00000000 0000024C 
                       P23_DOUT
                               EQU              0X24C
  229 00000000 00000250 
                       P24_DOUT
                               EQU              0X250
  230 00000000 00000254 
                       P25_DOUT
                               EQU              0X254
  231 00000000 00000258 
                       P26_DOUT
                               EQU              0X258
  232 00000000 0000025C 
                       P27_DOUT
                               EQU              0X25C
  233 00000000         
  234 00000000 00000260 
                       P30_DOUT
                               EQU              0X260
  235 00000000 00000264 
                       P31_DOUT
                               EQU              0X264
  236 00000000 00000268 
                       P32_DOUT
                               EQU              0X268
  237 00000000 0000026C 
                       P33_DOUT
                               EQU              0X26C
  238 00000000 00000270 
                       P34_DOUT
                               EQU              0X270
  239 00000000 00000274 
                       P35_DOUT
                               EQU              0X274
  240 00000000 00000278 
                       P36_DOUT



ARM Macro Assembler    Page 19 


                               EQU              0X278
  241 00000000 0000027C 
                       P37_DOUT
                               EQU              0X27C
  242 00000000         
  243 00000000 00000280 
                       P40_DOUT
                               EQU              0X280
  244 00000000 00000284 
                       P41_DOUT
                               EQU              0X284
  245 00000000 00000288 
                       P42_DOUT
                               EQU              0X288
  246 00000000 0000028C 
                       P43_DOUT
                               EQU              0X28C
  247 00000000 00000290 
                       P44_DOUT
                               EQU              0X290
  248 00000000 00000294 
                       P45_DOUT
                               EQU              0X294
  249 00000000 00000298 
                       P46_DOUT
                               EQU              0X298
  250 00000000 0000029C 
                       P47_DOUT
                               EQU              0X29C
  251 00000000         
  252 00000000         
  253 00000000         
  254 00000000         ;7.I2C控制器寄存器(I2C_BA)
  255 00000000 00000000 
                       I2CON   EQU              0X00
  256 00000000 00000004 
                       I2CADRR0
                               EQU              0X04
  257 00000000 00000008 
                       I2CDAT  EQU              0X08
  258 00000000 0000000C 
                       I2CSTATUS
                               EQU              0X0C
  259 00000000 00000010 
                       I2CLK   EQU              0X10
  260 00000000 00000014 
                       I2CTOC  EQU              0X14
  261 00000000 00000018 
                       I2CADDR1
                               EQU              0X18
  262 00000000 0000001C 
                       I2CADDR2
                               EQU              0X1C
  263 00000000 00000020 
                       I2CADDR3
                               EQU              0X20
  264 00000000 00000024 
                       I2CADM0 EQU              0X24
  265 00000000 00000028 



ARM Macro Assembler    Page 20 


                       I2CADM1 EQU              0X28
  266 00000000 0000002C 
                       I2CADM2 EQU              0X2C
  267 00000000 00000030 
                       I2CADM3 EQU              0X30
  268 00000000         
  269 00000000         
  270 00000000         
  271 00000000         ;8.PWM控制器寄存器(PWMx_BA)
  272 00000000 00000000 
                       PPR     EQU              0X00
  273 00000000 00000004 
                       CSR     EQU              0X04
  274 00000000 00000008 
                       PCR     EQU              0X08
  275 00000000         
  276 00000000 0000000C 
                       CNR0    EQU              0X0C
  277 00000000 00000010 
                       CMR0    EQU              0X10
  278 00000000 00000014 
                       PDR0    EQU              0X14
  279 00000000         
  280 00000000 00000018 
                       CNR1    EQU              0X18
  281 00000000 0000001C 
                       CMR1    EQU              0X1C
  282 00000000 00000020 
                       PDR1    EQU              0X20
  283 00000000         
  284 00000000 00000024 
                       CNR2    EQU              0X24
  285 00000000 00000028 
                       CMR2    EQU              0X28
  286 00000000 0000002C 
                       PDR2    EQU              0X2C
  287 00000000         
  288 00000000 00000030 
                       CNR3    EQU              0X30
  289 00000000 00000034 
                       CMR3    EQU              0X34
  290 00000000 00000038 
                       PDR3    EQU              0X38
  291 00000000         
  292 00000000 00000040 
                       PIER    EQU              0X40
  293 00000000 00000044 
                       PIIR    EQU              0X44
  294 00000000         
  295 00000000 00000050 
                       CCR0    EQU              0X50
  296 00000000 00000054 
                       CCR2    EQU              0X54
  297 00000000         
  298 00000000 00000058 
                       CRLR0   EQU              0X58
  299 00000000 0000005C 
                       CFLR0   EQU              0X5C
  300 00000000         



ARM Macro Assembler    Page 21 


  301 00000000 00000060 
                       CRLR1   EQU              0X60
  302 00000000 00000064 
                       CFLR1   EQU              0X64
  303 00000000         
  304 00000000 00000068 
                       CRLR2   EQU              0X68
  305 00000000 0000006C 
                       CFLR2   EQU              0X6C
  306 00000000         
  307 00000000 00000070 
                       CRLR3   EQU              0X70
  308 00000000 00000074 
                       CFLR3   EQU              0X74
  309 00000000         
  310 00000000 00000078 
                       CAPENR  EQU              0X78
  311 00000000 0000007C 
                       POE     EQU              0X7C
  312 00000000         
  313 00000000         
  314 00000000         ;9.SPI串行总线控制寄存器(SPIx_BA)
  315 00000000 00000000 
                       SPI_CNTRL
                               EQU              0X00
  316 00000000 00000004 
                       SPI_DIVIDER
                               EQU              0X04
  317 00000000 00000008 
                       SPI_SSR EQU              0X08
  318 00000000 00000010 
                       SPI_RX0 EQU              0X10
  319 00000000 00000014 
                       SPI_RX1 EQU              0X14
  320 00000000 00000020 
                       SPI_TX0 EQU              0X20
  321 00000000 00000024 
                       SPI_TX1 EQU              0X24
  322 00000000 00000034 
                       SPI_VARCLK
                               EQU              0X34
  323 00000000 0000003C 
                       SPI_CNTRL2
                               EQU              0X3C
  324 00000000         
  325 00000000         
  326 00000000         ;10.1定制器控制器寄存器(TMR01_BA)
  327 00000000 00000000 
                       TCSR0   EQU              0X00
  328 00000000 00000004 
                       TCMPR0  EQU              0X04
  329 00000000 00000008 
                       TISR0   EQU              0X08
  330 00000000 0000000C 
                       TDR0    EQU              0X0C
  331 00000000 00000010 
                       TCAP0   EQU              0X10
  332 00000000 00000014 
                       TEXCON0 EQU              0X14



ARM Macro Assembler    Page 22 


  333 00000000 00000018 
                       TEXISR0 EQU              0X18
  334 00000000 00000020 
                       TCSR1   EQU              0X20
  335 00000000 00000024 
                       TCMPR1  EQU              0X24
  336 00000000 00000028 
                       TISR1   EQU              0X28
  337 00000000 0000002C 
                       TDR1    EQU              0X2C
  338 00000000 00000030 
                       TCAP1   EQU              0X30
  339 00000000 00000034 
                       TEXCON1 EQU              0X34
  340 00000000 00000038 
                       TEXISR1 EQU              0X38
  341 00000000         
  342 00000000         ;10.2定时器控制器寄存器(TMR23_BA)
  343 00000000 00000000 
                       TCSR2   EQU              0X00
  344 00000000 00000004 
                       TCMPR2  EQU              0X04
  345 00000000 00000008 
                       TISR2   EQU              0X08
  346 00000000 0000000C 
                       TDR2    EQU              0X0C
  347 00000000 00000010 
                       TCAP2   EQU              0X10
  348 00000000 00000014 
                       TEXCON2 EQU              0X14
  349 00000000 00000018 
                       TEXISR2 EQU              0X18
  350 00000000 00000020 
                       TCSR3   EQU              0X20
  351 00000000 00000024 
                       TCMPR3  EQU              0X24
  352 00000000 00000028 
                       TISR3   EQU              0X28
  353 00000000 0000002C 
                       TDR3    EQU              0X2C
  354 00000000 00000030 
                       TCAP3   EQU              0X30
  355 00000000 00000034 
                       TEXCON3 EQU              0X34
  356 00000000 00000038 
                       TEXISR3 EQU              0X38
  357 00000000         
  358 00000000         
  359 00000000         ;11.看门狗定时器控制寄存器(WDT_BA)
  360 00000000 00000000 
                       WTCR    EQU              0X00
  361 00000000         
  362 00000000         
  363 00000000         ;12.UART接口控制寄存器(UARTx_BA)
  364 00000000 00000000 
                       UA_RBR  EQU              0X00        ;UART接收数据缓存寄
                                                            存器,R
  365 00000000 00000000 
                       UA_THR  EQU              0X00        ;UART发送保持寄存器



ARM Macro Assembler    Page 23 


                                                            ,W
  366 00000000 00000004 
                       UA_IER  EQU              0X04        ;中断使能
  367 00000000 00000008 
                       UA_FCR  EQU              0X08        ;FIFO控制
  368 00000000 0000000C 
                       UA_LCR  EQU              0X0C        ;Line控制
  369 00000000 00000010 
                       UA_MCR  EQU              0X10        ;Modem控制
  370 00000000 00000014 
                       UA_MSR  EQU              0X14        ;Modem状态
  371 00000000 00000018 
                       UA_FSR  EQU              0X18        ;FIFO状态
  372 00000000 0000001C 
                       UA_ISR  EQU              0X1C        ;中断状态
  373 00000000 00000020 
                       UA_TOR  EQU              0X20        ;超时
  374 00000000 00000024 
                       UA_BAUD EQU              0X24        ;波特率分频
  375 00000000 00000028 
                       UA_IRCR EQU              0X28        ;IrDA控制
  376 00000000 0000002C 
                       UA_ALT_CSR
                               EQU              0X2C        ;控制/状态
  377 00000000 00000030 
                       UA_FUN_SEL
                               EQU              0X30        ;功能选择
  378 00000000         
  379 00000000         
  380 00000000         
  381 00000000         ;13.ADC寄存器(ADC_BA)
  382 00000000 00000000 
                       ADDR0   EQU              0X00
  383 00000000 00000004 
                       ADDR1   EQU              0X04
  384 00000000 00000008 
                       ADDR2   EQU              0X08
  385 00000000 0000000C 
                       ADDR3   EQU              0X0C
  386 00000000 00000010 
                       ADDR4   EQU              0X10
  387 00000000 00000014 
                       ADDR5   EQU              0X14
  388 00000000 00000018 
                       ADDR6   EQU              0X18
  389 00000000 0000001C 
                       ADDR7   EQU              0X1C
  390 00000000 00000020 
                       ADCR    EQU              0X20
  391 00000000 00000024 
                       ADCHER  EQU              0X24
  392 00000000 00000028 
                       ADCMPR0 EQU              0X28
  393 00000000 0000002C 
                       ADCMPR1 EQU              0X2C
  394 00000000 00000030 
                       ADSR    EQU              0X30
  395 00000000         
  396 00000000         



ARM Macro Assembler    Page 24 


  397 00000000         ;14.ACMP模拟比较器(ACMP_BA)
  398 00000000 00000000 
                       CMP0CR  EQU              0X00
  399 00000000 00000004 
                       CMP1CR  EQU              0X04
  400 00000000 00000008 
                       CMPSR   EQU              0X08
  401 00000000         
  402 00000000         
  403 00000000         ;15.EBI控制寄存器(EBI_CTL_BA)
  404 00000000 00000000 
                       EBICON  EQU              0X00
  405 00000000 00000004 
                       EXTIME  EQU              0X04
  406 00000000         
  407 00000000         
  408 00000000         ;16.FMC控制寄存器(FMC_BA)
  409 00000000 00000000 
                       ISPCON  EQU              0X000
  410 00000000 00000004 
                       ISPADR  EQU              0X004
  411 00000000 00000008 
                       ISPDAT  EQU              0X008
  412 00000000 0000000C 
                       ISPCMD  EQU              0X00C
  413 00000000 00000010 
                       ISPTRG  EQU              0X010
  414 00000000 00000014 
                       DFBADR  EQU              0X014
  415 00000000 00000018 
                       FATCON  EQU              0X018
  416 00000000         
  417 00000000         
  418 00000000         
  419 00000000         
  420 00000000         
  421 00000000                 END
  455 00000000         
  456 00000000                 EXPORT           Main
  457 00000000         Main    FUNCTION
  458 00000000 F7FF FFFE       BL               UnLockRegister
  459 00000004 F7FF FFFE       BL               SYSInit
  460 00000008 F7FF FFFE       BL               MCUInit
  461 0000000C F7FF FFFE       BL               LedOutputCfg
  462 00000010         
  463 00000010 48E1            LDR              R0, =SCS_BA
  464 00000012 49E2            LDR              R1, =47999
  465 00000014 6141            STR              R1, [R0,#SYST_RVR] ;count from 
                                                            47999 to 0
  466 00000016 2100            MOVS             R1, #0X0
  467 00000018 6181            STR              R1, [R0,#SYST_CVR] ;clear
  468 0000001A 2105            MOVS             R1, #0X05
  469 0000001C 6101            STR              R1, [R0,#SYST_CSR] 
                                                            ;Enable core clock
  470 0000001E         
  471 0000001E         Main_loop
  472 0000001E 49E0            LDR              R1, =500
  473 00000020         Main_inner_loop1
  474 00000020         Main_inner_loop2



ARM Macro Assembler    Page 25 


  475 00000020 4AE0            LDR              R2, =0x10000
  476 00000022 6903            LDR              R3, [R0,#SYST_CSR]
  477 00000024 4213            TST              R3, R2      ;countflag =1?
  478 00000026 D0FB            BEQ              Main_inner_loop2
  479 00000028 1E49            SUBS             R1, R1, #1
  480 0000002A D1F9            BNE              Main_inner_loop1
  481 0000002C         
  482 0000002C 49DE            LDR              R1, =GPIO_BA
  483 0000002E 4ADF            LDR              R2, =P07_DOUT
  484 00000030 588B            LDR              R3, [R1, R2]
  485 00000032 43DB            MVNS             R3, R3      ;r3=~r3
  486 00000034 508B            STR              R3, [R1, R2]
  487 00000036         
  488 00000036 E7F2            B                Main_loop
  489 00000038                 ENDFUNC
  490 00000038         
  491 00000038         
  492 00000038         ;-------------------------------------------------------
                       -----------------------
  493 00000038         SYSInit FUNCTION
  494 00000038         
  495 00000038         ;LDR  R0, [PC,#108] ;什么作用？
  496 00000038 48DD            LDR              R0, =CLK_BA
  497 0000003A 6801            LDR              R1, [R0,#0X00] ;PWRCON
  498 0000003C 2204            MOVS             R2, #0X04   ;Enable 22.1184MHz 
                                                            RC Clock
  499 0000003E 4311            ORRS             R1, R1, R2
  500 00000040 6001            STR              R1, [R0,#0X00]
  501 00000042         
  502 00000042         
  503 00000042         ;Switch HCLK clock source to HIRC 
  504 00000042 2107            MOVS             R1, #0X07
  505 00000044 6101            STR              R1, [R0,#0X10] ;CLKSEL0
  506 00000046         
  507 00000046         ;Enable peripheral clock 
  508 00000046 6881            LDR              R1, [R0,#0X08] ;APBCLK
  509 00000048 4311            ORRS             R1, R1, R2  ;R2=0X04
  510 0000004A 6081            STR              R1, [R0,#0X08] ;TIMER0时钟使能
  511 0000004C         
  512 0000004C 6881            LDR              R1, [R0,#0X08]
  513 0000004E 2201            MOVS             R2, #0X01
  514 00000050 0712            LSLS             R2, R2, #28 ;就是左移28位,R2由0
                                                            X00000001变为0X1000
                                                            0000
  515 00000052 4311            ORRS             R1, R1, R2
  516 00000054 6081            STR              R1, [R0,#0X08] ;ADC时钟使能
  517 00000056         
  518 00000056 6881            LDR              R1, [R0,#0X08]
  519 00000058 1312            ASRS             R2, R2, #12 ;算术右移12位，CPSR
                                                            的C位为最低位移出的
                                                            值，R2由0X10000000
                                                            湮0X00010000
  520 0000005A 4311            ORRS             R1, R1, R2
  521 0000005C 6081            STR              R1, [R0,#0X08] ;UART0时钟使能
  522 0000005E         
  523 0000005E         ;Select UART module clock source
  524 0000005E 6942            LDR              R2, [R0,#0X14] ;CLKSEL1
  525 00000060 2103            MOVS             R1, #0X03
  526 00000062 0609            LSLS             R1, R1, #24 ;0X03左移24,0X03000



ARM Macro Assembler    Page 26 


                                                            000
  527 00000064 438A            BICS             R2, R2, R1  ;R2=R2&(~R1) 
  528 00000066 6142            STR              R2, [R0,#0X14] ;UART_S置为00
  529 00000068         
  530 00000068 6942            LDR              R2, [R0,#0X14]
  531 0000006A 430A            ORRS             R2, R2, R1
  532 0000006C 6142            STR              R2, [R0,#0X14] ;UART_S为11
  533 0000006E         
  534 0000006E         ;Select ADC module clock source 
  535 0000006E 6942            LDR              R2, [R0,#0X14]
  536 00000070 210C            MOVS             R1, #0X0C
  537 00000072 438A            BICS             R2, R2, R1
  538 00000074 6142            STR              R2, [R0,#0X14]
  539 00000076         
  540 00000076 6942            LDR              R2, [R0,#0X14]
  541 00000078 430A            ORRS             R2, R2, R1
  542 0000007A 6142            STR              R2, [R0,#0X14]
  543 0000007C         
  544 0000007C         ;Select TMR0 module clock source 
  545 0000007C 6942            LDR              R2, [R0,#0X14]
  546 0000007E 2107            MOVS             R1, #0X07
  547 00000080 0209            LSLS             R1, R1, #8
  548 00000082 438A            BICS             R2, R2, R1
  549 00000084 6142            STR              R2, [R0,#0X14]
  550 00000086         
  551 00000086 6942            LDR              R2, [R0,#0X14]
  552 00000088 430A            ORRS             R2, R2, R1
  553 0000008A 6142            STR              R2, [R0,#0X14]
  554 0000008C         
  555 0000008C         ;Set P0 multi-function pins for UART0 RXD and TXD
  556 0000008C 2005            MOVS             R0, #0X05
  557 0000008E 0700            LSLS             R0, R0, #28
  558 00000090 6B01            LDR              R1, [R0,#0X30]
  559 00000092         ;LDR  R2, [PC,#16]
  560 00000092 2204            MOVS             R2, #0X04
  561 00000094 0212            LSLS             R2, R2, #8
  562 00000096 1D12            ADDS             R2, R2, #0X04
  563 00000098 2308            MOVS             R3, #0X08
  564 0000009A 021B            LSLS             R3, R3, #8
  565 0000009C 3308            ADDS             R3, R3, #0X08
  566 0000009E 431A            ORRS             R2, R2, R3
  567 000000A0 4011            ANDS             R1, R1, R2  ;ANDS  R1, R1, R2
  568 000000A2 43D2            MVNS             R2, R2
  569 000000A4 6301            STR              R1, [R0,#0X30]
  570 000000A6         
  571 000000A6 6B01            LDR              R1, [R0, #0X30]
  572 000000A8 43D2            MVNS             R2, R2
  573 000000AA 4311            ORRS             R1, R1, R2
  574 000000AC 6301            STR              R1, [R0,#0X30]
  575 000000AE         
  576 000000AE 4770            BX               LR
  577 000000B0                 ENDFUNC
  578 000000B0         
  579 000000B0         
  580 000000B0         ;-------------------------------------------------------
                       ------------------------
  581 000000B0         UnLockRegister
                               FUNCTION
  582 000000B0 48C0            LDR              R0, =0x50000100



ARM Macro Assembler    Page 27 


  583 000000B2         ; Unlock Register                
  584 000000B2         
  585 000000B2 49C1            LDR              R1, =0x59
  586 000000B4 6001            STR              R1, [R0]
  587 000000B6 49C1            LDR              R1, =0x16
  588 000000B8 6001            STR              R1, [R0]
  589 000000BA 49C1            LDR              R1, =0x88
  590 000000BC 6001            STR              R1, [R0]
  591 000000BE         
  592 000000BE         ; Init POR
  593 000000BE 4AC1            LDR              R2, =0x50000024
  594 000000C0 49C1            LDR              R1, =0x00005AA5
  595 000000C2 6011            STR              R1, [R2]
  596 000000C4         
  597 000000C4         ; Lock register
  598 000000C4 2100            MOVS             R1, #0
  599 000000C6 6001            STR              R1, [R0]
  600 000000C8         
  601 000000C8         
  602 000000C8 4770            BX               LR
  603 000000CA         
  604 000000CA                 ENDFUNC
  605 000000CA         
  606 000000CA         
  607 000000CA         ;-------------------------------------------------------
                       ---------------------------
  608 000000CA         MCUInit FUNCTION
  609 000000CA         ;PUSH {R4-R7}
  610 000000CA         ;GPIO Init
  611 000000CA         
  612 000000CA 49B7            LDR              R1, =GPIO_BA
  613 000000CC 6808            LDR              R0, [R1, #0X00] ;P0_PMD
  614 000000CE 2005            MOVS             R0, #0X05
  615 000000D0 6008            STR              R0, [R1, #0X00]
  616 000000D2 2000            MOVS             R0, #0X00
  617 000000D4 6048            STR              R0, [R1,#0X04] ;P0_OFFD
  618 000000D6 6088            STR              R0, [R1,#0X08] ;P0_DOUT
  619 000000D8 60C8            STR              R0, [R1,#0X0C] ;P0_DMASK
  620 000000DA 6148            STR              R0, [R1,#0X14] ;P0_DBEN
  621 000000DC 6188            STR              R0, [R1,#0X18] ;P0_IMD
  622 000000DE 61C8            STR              R0, [R1,#0X1C] ;P0_IEN
  623 000000E0 6208            STR              R0, [R1,#0X20] ;P0_ISRC
  624 000000E2         
  625 000000E2 3140            ADDS             R1, R1, #0X40 ;P1_PMD
  626 000000E4 2005            MOVS             R0, #0X05
  627 000000E6 6408            STR              R0, [R1, #0X40]
  628 000000E8         
  629 000000E8         
  630 000000E8 3140            ADDS             R1, R1, #0X40 ;P2_PMD
  631 000000EA 2015            MOVS             R0, #0X15
  632 000000EC 3801            SUBS             R0, #1
  633 000000EE 0200            LSLS             R0, R0, #8
  634 000000F0 2315            MOVS             R3, #0X15
  635 000000F2 4318            ORRS             R0, R0, R3
  636 000000F4 6008            STR              R0, [R1,#0X00]
  637 000000F6 2000            MOVS             R0, #0X00
  638 000000F8         ;LDR  R2, =P2_DOUT
  639 000000F8         ;LDR  R0, [R1,R2]
  640 000000F8 6088            STR              R0, [R1,#0X08] ;P2_DOUT



ARM Macro Assembler    Page 28 


  641 000000FA         
  642 000000FA         
  643 000000FA 3140            ADDS             R1, R1, #0X40 ;P3_PMD
  644 000000FC 2051            MOVS             R0, #0X51
  645 000000FE 0200            LSLS             R0, R0, #8
  646 00000100 6008            STR              R0, [R1,#0X00]
  647 00000102 2000            MOVS             R0, #0X00
  648 00000104 6088            STR              R0, [R1,#0X08] ;P3_DOUT
  649 00000106 6148            STR              R0, [R1,#0X14] ;P3_DBEN
  650 00000108 6188            STR              R0, [R1,#0X18] ;P3_IMD
  651 0000010A 61C8            STR              R0, [R1,#0X1C] ;P3_IEN
  652 0000010C 6208            STR              R0, [R1,#0X20] ;P3_ISRC
  653 0000010E         
  654 0000010E         
  655 0000010E 3140            ADDS             R1, R1, #0X40 ;P4_PMD
  656 00000110 20FF            MOVS             R0, #0XFF
  657 00000112 3042            ADDS             R0, R0, #0X42
  658 00000114 6008            STR              R0, [R1,#0X00]
  659 00000116         
  660 00000116 2001            MOVS             R0, #0X01
  661 00000118 6088            STR              R0, [R1,#0X08]
  662 0000011A         
  663 0000011A         
  664 0000011A         ;WDT Init
  665 0000011A 49AC            LDR              R1, =WDT_BA
  666 0000011C 6008            STR              R0, [R1,#0X00]
  667 0000011E 6808            LDR              R0, [R1,#0X00] ;WTCR
  668 00000120         ;//WDT控制寄存器
  669 00000120         ;//WDT->WTCR = 0x80000281; //bit31：ICE调试模式应答禁止,
                       1-禁止 
  670 00000120         ;//bit10-bit8: 定时溢出间隔选择；25.6-128ms
  671 00000120         ;//bit7: WDT使能位，1-使能
  672 00000120         ;//bit6: WDT中断使能位, 1-使能
  673 00000120         ;//bit5: WDT唤醒标志: 1-CPU在掉电/休眠模式下被WDT溢出唤
                       
  674 00000120         ;//bit4: WDT唤醒功能使能: 1-使能
  675 00000120         ;//bit3: WDT中断标志，1-发生WDT中断
  676 00000120         ;//bit2: WDT复位标志，1-复位是由WDT引起的
  677 00000120         ;//bit1: WDT复位使能，1-使能
  678 00000120         ;//bit0: 复位WDT计数器，1-复位计数器值，0-无效
  679 00000120 2102            MOVS             R1, #0X02
  680 00000122 4308            ORRS             R0, R0, R1
  681 00000124 49A9            LDR              R1, =WDT_BA
  682 00000126 6008            STR              R0, [R1,#0X00]
  683 00000128         
  684 00000128 6808            LDR              R0, [R1,#0X00]
  685 0000012A 2180            MOVS             R1, #0X80
  686 0000012C 4308            ORRS             R0, R0, R1
  687 0000012E 49A7            LDR              R1, =WDT_BA
  688 00000130 6008            STR              R0, [R1,#0X00]
  689 00000132         
  690 00000132 489F            LDR              R0, =CLK_BA
  691 00000134 6880            LDR              R0, [R0,#0X08] ;APBCLK
  692 00000136 2101            MOVS             R1, #0X01
  693 00000138 4308            ORRS             R0, R0, R1
  694 0000013A 499D            LDR              R1, =CLK_BA
  695 0000013C 6088            STR              R0, [R1,#0X08]
  696 0000013E         
  697 0000013E 6948            LDR              R0, [R1,#0X14] ;CLKSEL1



ARM Macro Assembler    Page 29 


  698 00000140 2103            MOVS             R1, #0X03
  699 00000142 4308            ORRS             R0, R0, R1
  700 00000144 499A            LDR              R1, =CLK_BA
  701 00000146 6148            STR              R0, [R1,#0X14]
  702 00000148         
  703 00000148 49A1            LDR              R1, =TMR01_BA
  704 0000014A 2000            MOVS             R0, #0X00
  705 0000014C 6088            STR              R0, [R1,#0X08]
  706 0000014E         
  707 0000014E 6808            LDR              R0, [R1,#0X00] ;TCSR0
  708 00000150 2105            MOVS             R1, #0X05
  709 00000152 06C9            LSLS             R1, R1, #27
  710 00000154 4308            ORRS             R0, R0, R1
  711 00000156 499E            LDR              R1, =TMR01_BA
  712 00000158 6008            STR              R0, [R1,#0X00]
  713 0000015A         
  714 0000015A 2016            MOVS             R0, #0X16
  715 0000015C 6048            STR              R0, [R1,#0X04]
  716 0000015E         
  717 0000015E 6808            LDR              R0, [R1,#0X00]
  718 00000160 0A00            LSRS             R0, R0, #8
  719 00000162 0200            LSLS             R0, R0, #8
  720 00000164 3063            ADDS             R0, R0, #0X63
  721 00000166 6008            STR              R0, [R1,#0X00]
  722 00000168         
  723 00000168 4C9A            LDR              R4, =NVIC_BA
  724 0000016A 2308            MOVS             R3, #0X08
  725 0000016C 158A            ASRS             R2, R1, #22
  726 0000016E 6022            STR              R2, [R4,#0X00]
  727 00000170         
  728 00000170 6808            LDR              R0, [R1,#0X00]
  729 00000172 0389            LSLS             R1, R1, #14
  730 00000174 4308            ORRS             R0, R0, R1
  731 00000176 4996            LDR              R1, =TMR01_BA
  732 00000178 6008            STR              R0, [R1, #0X00]
  733 0000017A         
  734 0000017A         
  735 0000017A         ;ADC
  736 0000017A 488D            LDR              R0, =CLK_BA
  737 0000017C 6980            LDR              R0, [R0,#0X18]
  738 0000017E 21FF            MOVS             R1, #0XFF
  739 00000180 0409            LSLS             R1, R1, #16
  740 00000182 4388            BICS             R0, R0, R1
  741 00000184 0215            LSLS             R5, R2, #8
  742 00000186 498A            LDR              R1, =CLK_BA
  743 00000188 1940            ADDS             R0, R0, R5
  744 0000018A 6188            STR              R0, [R1,#0X18]
  745 0000018C         
  746 0000018C 4992            LDR              R1, =ADC_BA
  747 0000018E 200D            MOVS             R0, #0X0D
  748 00000190 6208            STR              R0, [R1,#0X20]
  749 00000192         
  750 00000192 6A48            LDR              R0, [R1,#0X24]
  751 00000194 6A49            LDR              R1, [R1,#0X24]
  752 00000196 26F8            MOVS             R6, #0XF8
  753 00000198 0A09            LSRS             R1, R1, #8
  754 0000019A 0209            LSLS             R1, R1, #8
  755 0000019C 4331            ORRS             R1, R1, R6
  756 0000019E 4308            ORRS             R0, R0, R1



ARM Macro Assembler    Page 30 


  757 000001A0 498D            LDR              R1, =ADC_BA
  758 000001A2 6248            STR              R0, [R1,#0X24]
  759 000001A4         
  760 000001A4         ;P1.3 P1.4 INPUT NEED TO BE MODEFY
  761 000001A4 4980            LDR              R1, =GPIO_BA
  762 000001A6 3140            ADDS             R1, R1, #0X40
  763 000001A8 0430            LSLS             R0, R6, #16
  764 000001AA 6048            STR              R0, [R1,#0X04]
  765 000001AC         
  766 000001AC 2005            MOVS             R0, #0X05
  767 000001AE 0700            LSLS             R0, R0, #28
  768 000001B0 6B40            LDR              R0, [R0,#0X34]
  769 000001B2         ;
  770 000001B2 4008            ANDS             R0, R0, R1
  771 000001B4 2105            MOVS             R1, #0X05
  772 000001B6 0709            LSLS             R1, R1, #28
  773 000001B8 6348            STR              R0, [R1,#0X34]
  774 000001BA         
  775 000001BA 6B48            LDR              R0, [R1,#0X34]
  776 000001BC 4330            ORRS             R0, R0, R6
  777 000001BE 6348            STR              R0, [R1,#0X34]
  778 000001C0         
  779 000001C0 4984            LDR              R1, =NVIC_BA
  780 000001C2 3180            ADDS             R1, R1, #0X080
  781 000001C4 0550            LSLS             R0, R2, #21
  782 000001C6 6008            STR              R0, [R1,#0X00]
  783 000001C8         
  784 000001C8         
  785 000001C8         ;UART0
  786 000001C8 4884            LDR              R0, =UART0_BA
  787 000001CA         ;LDR  R1, ;R1=0X300008FE
  788 000001CA 6241            STR              R1, [R0,#0X24]
  789 000001CC         
  790 000001CC 4983            LDR              R1, =UART0_BA
  791 000001CE 2003            MOVS             R0, #0X03
  792 000001D0 60C8            STR              R0, [R1,#0X0C]
  793 000001D2         
  794 000001D2 6848            LDR              R0, [R1, #0X04]
  795 000001D4 2101            MOVS             R1, #0X01
  796 000001D6 4308            ORRS             R0, R0, R1
  797 000001D8 4980            LDR              R1, =UART0_BA
  798 000001DA 0110            LSLS             R0, R2, #4
  799 000001DC 6020            STR              R0, [R4,#0X00]
  800 000001DE         
  801 000001DE         
  802 000001DE         ;FMC
  803 000001DE 4880            LDR              R0, =FMC_BA
  804 000001E0 6801            LDR              R1, [R0,#0X00]
  805 000001E2 2601            MOVS             R6, #0X01
  806 000001E4 4331            ORRS             R1, R1, R6
  807 000001E6 6001            STR              R1, [R0,#0X00]
  808 000001E8         
  809 000001E8 6801            LDR              R1, [R0,#0X00]
  810 000001EA 2610            MOVS             R6, #0X10
  811 000001EC 4331            ORRS             R1, R1, R6
  812 000001EE 6001            STR              R1, [R0,#0X00]
  813 000001F0         
  814 000001F0 6801            LDR              R1, [R0,#0X00]
  815 000001F2 2620            MOVS             R6, #0X20



ARM Macro Assembler    Page 31 


  816 000001F4 4331            ORRS             R1, R1, R6
  817 000001F6 6001            STR              R1, [R0,#0X00]
  818 000001F8         
  819 000001F8 6801            LDR              R1, [R0,#0X00]
  820 000001FA 4319            ORRS             R1, R1, R3
  821 000001FC 6001            STR              R1, [R0,#0X00]
  822 000001FE         
  823 000001FE         
  824 000001FE         ;PWM
  825 000001FE 486C            LDR              R0, =CLK_BA
  826 00000200 69C0            LDR              R0, [R0,#0X1C]
  827 00000202 2130            MOVS             R1, #0X30
  828 00000204 4308            ORRS             R0, R0, R1
  829 00000206 496A            LDR              R1, =CLK_BA
  830 00000208 61C8            STR              R0, [R1,#0X1C]
  831 0000020A         
  832 0000020A 6888            LDR              R0, [R1,#0X08]
  833 0000020C 0349            LSLS             R1, R1, #13
  834 0000020E 4308            ORRS             R0, R0, R1
  835 00000210 4967            LDR              R1, =CLK_BA
  836 00000212 6088            STR              R0, [R1,#0X08]
  837 00000214         
  838 00000214 4873            LDR              R0, =PWMB_BA
  839 00000216 6841            LDR              R1, [R0,#0X04]
  840 00000218 2640            MOVS             R6, #0X40
  841 0000021A 4331            ORRS             R1, R1, R6
  842 0000021C 6041            STR              R1, [R0,#0X04]
  843 0000021E         
  844 0000021E 6801            LDR              R1, [R0,#0X00]
  845 00000220 2601            MOVS             R6, #0X01
  846 00000222 4331            ORRS             R1, R1, R6
  847 00000224 6001            STR              R1, [R0,#0X00]
  848 00000226         
  849 00000226 6881            LDR              R1, [R0,#0X08]
  850 00000228 00D6            LSLS             R6, R2, #3
  851 0000022A 4331            ORRS             R1, R1, R6
  852 0000022C 6081            STR              R1, [R0,#0X08]
  853 0000022E         
  854 0000022E 6881            LDR              R1, [R0,#0X08]
  855 00000230 4391            BICS             R1, R1, R2
  856 00000232 6081            STR              R1, [R0,#0X08]
  857 00000234         
  858 00000234 2105            MOVS             R1, #0X05
  859 00000236 0209            LSLS             R1, R1, #8
  860 00000238 2766            MOVS             R7, #0X66
  861 0000023A 4339            ORRS             R1, R1, R7
  862 0000023C 61C1            STR              R1, [R0,#0X1C]
  863 0000023E         
  864 0000023E 0049            LSLS             R1, R1, #1
  865 00000240 6181            STR              R1, [R0,#0X18]
  866 00000242         
  867 00000242 0280            LSLS             R0, R0, #10
  868 00000244 6B80            LDR              R0, [R0,#0X38]
  869 00000246 0151            LSLS             R1, R2, #5
  870 00000248 4308            ORRS             R0, R0, R1
  871 0000024A 2105            MOVS             R1, #0X05
  872 0000024C 0709            LSLS             R1, R1, #28
  873 0000024E 6388            STR              R0, [R1,#0X38]
  874 00000250         



ARM Macro Assembler    Page 32 


  875 00000250 4857            LDR              R0, =CLK_BA
  876 00000252 6940            LDR              R0, [R0,#0X14]
  877 00000254 2103            MOVS             R1, #0X03
  878 00000256 0789            LSLS             R1, R1, #30
  879 00000258 4308            ORRS             R0, R0, R1
  880 0000025A 4955            LDR              R1, =CLK_BA
  881 0000025C 6148            STR              R0, [R1,#0X14]
  882 0000025E         
  883 0000025E 6888            LDR              R0, [R1,#0X08]
  884 00000260 0309            LSLS             R1, R1, #12
  885 00000262 4308            ORRS             R0, R0, R1
  886 00000264 4952            LDR              R1, =CLK_BA
  887 00000266 6088            STR              R0, [R1,#0X08]
  888 00000268         
  889 00000268 485F            LDR              R0, =PWMA_BA
  890 0000026A 6841            LDR              R1, [R0,#0X04]
  891 0000026C 1506            ASRS             R6, R0, #20
  892 0000026E 4331            ORRS             R1, R1, R6
  893 00000270 6041            STR              R1, [R0,#0X04]
  894 00000272         
  895 00000272 6801            LDR              R1, [R0,#0X00]
  896 00000274 4311            ORRS             R1, R1, R2
  897 00000276 6001            STR              R1, [R0,#0X00]
  898 00000278         
  899 00000278 6881            LDR              R1, [R0,#0X08]
  900 0000027A 02D7            LSLS             R7, R2, #11
  901 0000027C 4339            ORRS             R1, R1, R7
  902 0000027E 6081            STR              R1, [R0,#0X08]
  903 00000280         
  904 00000280 6881            LDR              R1, [R0,#0X08]
  905 00000282 43A9            BICS             R1, R1, R5
  906 00000284 6081            STR              R1, [R0,#0X08]
  907 00000286         
  908 00000286 2100            MOVS             R1, #0X00
  909 00000288 6281            STR              R1, [R0,#0X28]
  910 0000028A         
  911 0000028A 27FF            MOVS             R7, #0X0FF
  912 0000028C 013F            LSLS             R7, R7, #4
  913 0000028E 210F            MOVS             R1, #0X0F
  914 00000290 430F            ORRS             R7, R7, R1
  915 00000292 6247            STR              R7, [R0,#0X24]
  916 00000294         
  917 00000294 2105            MOVS             R1, #0X05
  918 00000296 0709            LSLS             R1, R1, #28
  919 00000298 6B89            LDR              R1, [R1,#0X38]
  920 0000029A 4331            ORRS             R1, R1, R6
  921 0000029C 2605            MOVS             R6, #0X05
  922 0000029E 0736            LSLS             R6, R6, #28
  923 000002A0 63B1            STR              R1, [R6,#0X38]
  924 000002A2         
  925 000002A2 6881            LDR              R1, [R0,#0X08]
  926 000002A4 4329            ORRS             R1, R1, R5
  927 000002A6 6081            STR              R1, [R0,#0X08]
  928 000002A8         
  929 000002A8 494F            LDR              R1, =PWMA_BA
  930 000002AA 3140            ADDS             R1, R1, #0X40
  931 000002AC 6BCD            LDR              R5, [R1,#0X3C]
  932 000002AE 2604            MOVS             R6, #0X04
  933 000002B0 4335            ORRS             R5, R5, R6



ARM Macro Assembler    Page 33 


  934 000002B2 63CD            STR              R5, [R1,#0X3C]
  935 000002B4         
  936 000002B4 4D3E            LDR              R5, =CLK_BA
  937 000002B6 696D            LDR              R5, [R5,#0X14]
  938 000002B8 2603            MOVS             R6, #0X03
  939 000002BA 0736            LSLS             R6, R6, #28
  940 000002BC 4335            ORRS             R5, R5, R6
  941 000002BE 4E3C            LDR              R6, =CLK_BA
  942 000002C0 6175            STR              R5, [R6,#0X14]
  943 000002C2         
  944 000002C2 68B5            LDR              R5, [R6,#0X08]
  945 000002C4 0086            LSLS             R6, R0, #2
  946 000002C6 4335            ORRS             R5, R5, R6
  947 000002C8 4E39            LDR              R6, =CLK_BA
  948 000002CA 60B5            STR              R5, [R6,#0X08]
  949 000002CC         
  950 000002CC 6845            LDR              R5, [R0,#0X04]
  951 000002CE 6045            STR              R5, [R0,#0X04]
  952 000002D0         
  953 000002D0 6805            LDR              R5, [R0,#0X00]
  954 000002D2 2601            MOVS             R6, #0X01
  955 000002D4 4335            ORRS             R5, R5, R6
  956 000002D6 6005            STR              R5, [R0,#0X00]
  957 000002D8         
  958 000002D8 6885            LDR              R5, [R0,#0X08]
  959 000002DA 14C6            ASRS             R6, R0, #19
  960 000002DC 4335            ORRS             R5, R5, R6
  961 000002DE 6085            STR              R5, [R0,#0X08]
  962 000002E0         
  963 000002E0 6885            LDR              R5, [R0,#0X08]
  964 000002E2 4395            BICS             R5, R5, R2
  965 000002E4 6085            STR              R5, [R0,#0X08]
  966 000002E6         
  967 000002E6 2500            MOVS             R5, #0X00
  968 000002E8 61C5            STR              R5, [R0,#0X1C]
  969 000002EA         
  970 000002EA 6187            STR              R7, [R0,#0x18]
  971 000002EC         
  972 000002EC 2505            MOVS             R5, #0X05
  973 000002EE 072D            LSLS             R5, R5, #28
  974 000002F0 6BAD            LDR              R5, [R5,#0X38]
  975 000002F2 1546            ASRS             R6, R0, #21
  976 000002F4 4335            ORRS             R5, R5, R6
  977 000002F6 2605            MOVS             R6, #0X05
  978 000002F8 0736            LSLS             R6, R6, #28
  979 000002FA 63B5            STR              R5, [R6,#0X38]
  980 000002FC         
  981 000002FC 6885            LDR              R5, [R0,#0X08]
  982 000002FE 4315            ORRS             R5, R5, R2
  983 00000300 6085            STR              R5, [R0,#0X08]
  984 00000302         
  985 00000302 6BCA            LDR              R2, [R1,#0X3C]
  986 00000304 2502            MOVS             R5, #0X02
  987 00000306 432A            ORRS             R2, R2, R5
  988 00000308 63CA            STR              R2, [R1,#0X3C]
  989 0000030A         
  990 0000030A 4A29            LDR              R2, =CLK_BA
  991 0000030C 6952            LDR              R2, [R2,#0X14]
  992 0000030E 2503            MOVS             R5, #0X03



ARM Macro Assembler    Page 34 


  993 00000310 072D            LSLS             R5, R5, #28
  994 00000312 432A            ORRS             R2, R2, R5
  995 00000314 4D26            LDR              R5, =CLK_BA
  996 00000316 616A            STR              R2, [R5,#0X14]
  997 00000318         
  998 00000318 68AA            LDR              R2, [R5,#0X08]
  999 0000031A 0085            LSLS             R5, R0, #2
 1000 0000031C 432A            ORRS             R2, R2, R5
 1001 0000031E 4D24            LDR              R5, =CLK_BA
 1002 00000320 60AA            STR              R2, [R5,#0X08]
 1003 00000322         
 1004 00000322 6842            LDR              R2, [R0,#0X04]
 1005 00000324 2504            MOVS             R5, #0x04
 1006 00000326 432A            ORRS             R2, R2, R5
 1007 00000328 6042            STR              R2, [R0,#0X04]
 1008 0000032A         
 1009 0000032A 6802            LDR              R2, [R0,#0X00]
 1010 0000032C 2501            MOVS             R5, #0X01
 1011 0000032E 432A            ORRS             R2, R2, R5
 1012 00000330 6002            STR              R2, [R0,#0X00]
 1013 00000332         
 1014 00000332 6882            LDR              R2, [R0,#0X08]
 1015 00000334 431A            ORRS             R2, R2, R3
 1016 00000336 6082            STR              R2, [R0,#0X08]
 1017 00000338         
 1018 00000338 6882            LDR              R2, [R0,#0X08]
 1019 0000033A 43AA            BICS             R2, R2, R5
 1020 0000033C 6082            STR              R2, [R0,#0X08]
 1021 0000033E         
 1022 0000033E 2200            MOVS             R2, #0X00
 1023 00000340 6102            STR              R2, [R0,#0X10]
 1024 00000342         
 1025 00000342 22C3            MOVS             R2, #0XC3
 1026 00000344 0212            LSLS             R2, R2, #8
 1027 00000346 2650            MOVS             R6, #0X50
 1028 00000348 4332            ORRS             R2, R2, R6
 1029 0000034A 60C2            STR              R2, [R0,#0X0C]
 1030 0000034C         
 1031 0000034C 4A27            LDR              R2, =GCR_BA
 1032 0000034E 3240            ADDS             R2, R2, #0X40
 1033 00000350 6815            LDR              R5, [R2,#0X00]
 1034 00000352 2601            MOVS             R6, #0X01
 1035 00000354 4335            ORRS             R5, R5, R6
 1036 00000356 6015            STR              R5, [R2,#0X00]
 1037 00000358         
 1038 00000358 6882            LDR              R2, [R0,#0X08]
 1039 0000035A 4332            ORRS             R2, R2, R6
 1040 0000035C 6082            STR              R2, [R0,#0X08]
 1041 0000035E         
 1042 0000035E 6BC8            LDR              R0, [R1,#0X03C]
 1043 00000360 4330            ORRS             R0, R0, R6
 1044 00000362 63C8            STR              R0, [R1,#0X3C]
 1045 00000364 6023            STR              R3, [R4,#0X00]
 1046 00000366         
 1047 00000366         ;POP  {R4-R7}
 1048 00000366 4770            BX               LR
 1049 00000368                 ENDFUNC
 1050 00000368         ;-------------------------------------------------------
                       ---------------------------



ARM Macro Assembler    Page 35 


 1051 00000368         LedOutputCfg
                               FUNCTION
 1052 00000368         
 1053 00000368 4820            LDR              R0,=GCR_BA
 1054 0000036A 6B01            LDR              R1,[R0,#0X30] ;P0_MFP
 1055 0000036C 2108            MOVS             R1, #0X008
 1056 0000036E 6301            STR              R1,[R0,#0X30]
 1057 00000370         
 1058 00000370 2004            MOVS             R0, #0X04   ;LDR     R0,=GPIO_B
                                                            A
 1059 00000372 0300            LSLS             R0, R0, #12
 1060 00000374 6801            LDR              R1, [R0,#0X00] ;P0_PMD
 1061 00000376 2201            MOVS             R2, #0X01
 1062 00000378 4391            BICS             R1, R1, R2
 1063 0000037A 6001            STR              R1, [R0,#0X00]
 1064 0000037C         
 1065 0000037C 6801            LDR              R1, [R0,#0X00] ;P0_PMD
 1066 0000037E 4311            ORRS             R1, R1, R2
 1067 00000380 6001            STR              R1, [R0,#0X00]
 1068 00000382         
 1069 00000382         
 1070 00000382 4809            LDR              R0, =GPIO_BA
 1071 00000384 6881            LDR              R1, [R0,#P0_DOUT]
 1072 00000386 2108            MOVS             R1, #0x0008
 1073 00000388 6081            STR              R1, [R0, #P0_DOUT]
 1074 0000038A         
 1075 0000038A 4807            LDR              R0, =GPIO_BA
 1076 0000038C 4A07            LDR              R2, =P07_DOUT
 1077 0000038E 5881            LDR              R1, [R0,R2]
 1078 00000390 2100            MOVS             R1, #0x0
 1079 00000392 5081            STR              R1, [R0,R2]
 1080 00000394         
 1081 00000394 4770            BX               LR
 1082 00000396         
 1083 00000396                 ENDFUNC
 1084 00000396 BF00            NOP
 1085 00000398                 END
              E000E000 
              0000BB7F 
              000001F4 
              00010000 
              50004000 
              0000021C 
              50000200 
              50000100 
              00000059 
              00000016 
              00000088 
              50000024 
              00005AA5 
              40004000 
              40010000 
              E000E100 
              400E0000 
              40050000 
              5000C000 
              40140000 
              40040000 
              50000000 



ARM Macro Assembler    Page 36 


Command Line: --debug --xref --diag_suppress=9931 --cpu=Cortex-M0 --apcs=interw
ork --depend=.\objects\main.d -o.\objects\main.o -ID:\keil517\ARM\RV31\INC -ID:
\keil517\ARM\CMSIS\Include --predefine="__UVISION_VERSION SETA 517" --list=.\li
stings\main.lst User\Main.s



ARM Macro Assembler    Page 1 Alphabetic symbol ordering
Relocatable symbols

ADNUM 00000085

Symbol: ADNUM
   Definitions
      At line 169 in file User\Main.s
   Uses
      None
Comment: ADNUM unused
ADNUMP 00000054

Symbol: ADNUMP
   Definitions
      At line 109 in file User\Main.s
   Uses
      None
Comment: ADNUMP unused
ADSEC 00000024

Symbol: ADSEC
   Definitions
      At line 49 in file User\Main.s
   Uses
      None
Comment: ADSEC unused
ADSECP 00000025

Symbol: ADSECP
   Definitions
      At line 50 in file User\Main.s
   Uses
      None
Comment: ADSECP unused
ADTMP 0000001D

Symbol: ADTMP
   Definitions
      At line 41 in file User\Main.s
   Uses
      None
Comment: ADTMP unused
ADTMPS 0000001E

Symbol: ADTMPS
   Definitions
      At line 42 in file User\Main.s
   Uses
      None
Comment: ADTMPS unused
ADVAL 0000001C

Symbol: ADVAL
   Definitions
      At line 40 in file User\Main.s
   Uses
      None
Comment: ADVAL unused
ADVAL1 00000086

Symbol: ADVAL1



ARM Macro Assembler    Page 2 Alphabetic symbol ordering
Relocatable symbols

   Definitions
      At line 170 in file User\Main.s
   Uses
      None
Comment: ADVAL1 unused
ADVAL1P 00000055

Symbol: ADVAL1P
   Definitions
      At line 110 in file User\Main.s
   Uses
      None
Comment: ADVAL1P unused
ADVAL2 00000087

Symbol: ADVAL2
   Definitions
      At line 171 in file User\Main.s
   Uses
      None
Comment: ADVAL2 unused
ADVAL2P 00000056

Symbol: ADVAL2P
   Definitions
      At line 111 in file User\Main.s
   Uses
      None
Comment: ADVAL2P unused
ADVVL 000000A5

Symbol: ADVVL
   Definitions
      At line 209 in file User\Main.s
   Uses
      None
Comment: ADVVL unused
ADVVLP 000000A6

Symbol: ADVVLP
   Definitions
      At line 210 in file User\Main.s
   Uses
      None
Comment: ADVVLP unused
AJMSP 0000013B

Symbol: AJMSP
   Definitions
      At line 386 in file User\Main.s
   Uses
      None
Comment: AJMSP unused
AJVAL 0000005B

Symbol: AJVAL
   Definitions
      At line 117 in file User\Main.s
   Uses



ARM Macro Assembler    Page 3 Alphabetic symbol ordering
Relocatable symbols

      None
Comment: AJVAL unused
AJVALP 000000B2

Symbol: AJVALP
   Definitions
      At line 224 in file User\Main.s
   Uses
      None
Comment: AJVALP unused
AJVVP 0000012C

Symbol: AJVVP
   Definitions
      At line 369 in file User\Main.s
   Uses
      None
Comment: AJVVP unused
AVL 000000C5

Symbol: AVL
   Definitions
      At line 250 in file User\Main.s
   Uses
      None
Comment: AVL unused
BGYF 0000000D

Symbol: BGYF
   Definitions
      At line 24 in file User\Main.s
   Uses
      None
Comment: BGYF unused
BGYSEC 0000012E

Symbol: BGYSEC
   Definitions
      At line 371 in file User\Main.s
   Uses
      None
Comment: BGYSEC unused
BJNDHF 00000117

Symbol: BJNDHF
   Definitions
      At line 345 in file User\Main.s
   Uses
      None
Comment: BJNDHF unused
BLFMS 00000136

Symbol: BLFMS
   Definitions
      At line 379 in file User\Main.s
   Uses
      None
Comment: BLFMS unused
BLFPWM 00000053



ARM Macro Assembler    Page 4 Alphabetic symbol ordering
Relocatable symbols


Symbol: BLFPWM
   Definitions
      At line 107 in file User\Main.s
   Uses
      None
Comment: BLFPWM unused
BMVAL1 00000134

Symbol: BMVAL1
   Definitions
      At line 377 in file User\Main.s
   Uses
      None
Comment: BMVAL1 unused
BMVAL2 00000135

Symbol: BMVAL2
   Definitions
      At line 378 in file User\Main.s
   Uses
      None
Comment: BMVAL2 unused
BUZBJF 0000003D

Symbol: BUZBJF
   Definitions
      At line 80 in file User\Main.s
   Uses
      None
Comment: BUZBJF unused
BUZCNT 000000B0

Symbol: BUZCNT
   Definitions
      At line 222 in file User\Main.s
   Uses
      None
Comment: BUZCNT unused
BUZF 00000009

Symbol: BUZF
   Definitions
      At line 20 in file User\Main.s
   Uses
      None
Comment: BUZF unused
BUZMS 000000AE

Symbol: BUZMS
   Definitions
      At line 220 in file User\Main.s
   Uses
      None
Comment: BUZMS unused
BXSGZF 00000061

Symbol: BXSGZF
   Definitions



ARM Macro Assembler    Page 5 Alphabetic symbol ordering
Relocatable symbols

      At line 126 in file User\Main.s
   Uses
      None
Comment: BXSGZF unused
BZSTWD 00000156

Symbol: BZSTWD
   Definitions
      At line 416 in file User\Main.s
   Uses
      None
Comment: BZSTWD unused
CGI8F 00000113

Symbol: CGI8F
   Definitions
      At line 339 in file User\Main.s
   Uses
      None
Comment: CGI8F unused
CGI8TR12SF 00000116

Symbol: CGI8TR12SF
   Definitions
      At line 344 in file User\Main.s
   Uses
      None
Comment: CGI8TR12SF unused
CGI8TR16SF 00000115

Symbol: CGI8TR16SF
   Definitions
      At line 343 in file User\Main.s
   Uses
      None
Comment: CGI8TR16SF unused
CLCOGZMIN 00000164

Symbol: CLCOGZMIN
   Definitions
      At line 430 in file User\Main.s
   Uses
      None
Comment: CLCOGZMIN unused
CLCOGZNUM 00000163

Symbol: CLCOGZNUM
   Definitions
      At line 429 in file User\Main.s
   Uses
      None
Comment: CLCOGZNUM unused
CLCOWARMF 00000119

Symbol: CLCOWARMF
   Definitions
      At line 347 in file User\Main.s
   Uses
      None



ARM Macro Assembler    Page 6 Alphabetic symbol ordering
Relocatable symbols

Comment: CLCOWARMF unused
CLXXEEROMF 000000DC

Symbol: CLXXEEROMF
   Definitions
      At line 275 in file User\Main.s
   Uses
      None
Comment: CLXXEEROMF unused
CMF 000000D2

Symbol: CMF
   Definitions
      At line 264 in file User\Main.s
   Uses
      None
Comment: CMF unused
COGZNUM 00000162

Symbol: COGZNUM
   Definitions
      At line 428 in file User\Main.s
   Uses
      None
Comment: COGZNUM unused
COLDWATERFULF 00000114

Symbol: COLDWATERFULF
   Definitions
      At line 342 in file User\Main.s
   Uses
      None
Comment: COLDWATERFULF unused
COLDWATERSEC 0000015A

Symbol: COLDWATERSEC
   Definitions
      At line 420 in file User\Main.s
   Uses
      None
Comment: COLDWATERSEC unused
COWARMF 00000112

Symbol: COWARMF
   Definitions
      At line 338 in file User\Main.s
   Uses
      None
Comment: COWARMF unused
CSSDBZF 00000068

Symbol: CSSDBZF
   Definitions
      At line 133 in file User\Main.s
   Uses
      None
Comment: CSSDBZF unused
CSSDF 000000D0




ARM Macro Assembler    Page 7 Alphabetic symbol ordering
Relocatable symbols

Symbol: CSSDF
   Definitions
      At line 262 in file User\Main.s
   Uses
      None
Comment: CSSDF unused
CUNSLMS 0000014E

Symbol: CUNSLMS
   Definitions
      At line 408 in file User\Main.s
   Uses
      None
Comment: CUNSLMS unused
CXAJSEC 0000012A

Symbol: CXAJSEC
   Definitions
      At line 367 in file User\Main.s
   Uses
      None
Comment: CXAJSEC unused
CXMS 00000082

Symbol: CXMS
   Definitions
      At line 162 in file User\Main.s
   Uses
      None
Comment: CXMS unused
DAD 000000C4

Symbol: DAD
   Definitions
      At line 243 in file User\Main.s
   Uses
      None
Comment: DAD unused
DAI 000000C3

Symbol: DAI
   Definitions
      At line 242 in file User\Main.s
   Uses
      None
Comment: DAI unused
DAP 000000C2

Symbol: DAP
   Definitions
      At line 241 in file User\Main.s
   Uses
      None
Comment: DAP unused
DCUNT 000000CD

Symbol: DCUNT
   Definitions
      At line 258 in file User\Main.s



ARM Macro Assembler    Page 8 Alphabetic symbol ordering
Relocatable symbols

   Uses
      None
Comment: DCUNT unused
DHMS 00000019

Symbol: DHMS
   Definitions
      At line 37 in file User\Main.s
   Uses
      None
Comment: DHMS unused
DHOKF 00000043

Symbol: DHOKF
   Definitions
      At line 88 in file User\Main.s
   Uses
      None
Comment: DHOKF unused
DHOKSEC 00000137

Symbol: DHOKSEC
   Definitions
      At line 380 in file User\Main.s
   Uses
      None
Comment: DHOKSEC unused
DHSEC 0000001A

Symbol: DHSEC
   Definitions
      At line 38 in file User\Main.s
   Uses
      None
Comment: DHSEC unused
DHWRO 00000034

Symbol: DHWRO
   Definitions
      At line 70 in file User\Main.s
   Uses
      None
Comment: DHWRO unused
DLTQF 00000075

Symbol: DLTQF
   Definitions
      At line 148 in file User\Main.s
   Uses
      None
Comment: DLTQF unused
DLTQVL 0000009D

Symbol: DLTQVL
   Definitions
      At line 201 in file User\Main.s
   Uses
      None
Comment: DLTQVL unused



ARM Macro Assembler    Page 9 Alphabetic symbol ordering
Relocatable symbols

DLTQVLP 00000142

Symbol: DLTQVLP
   Definitions
      At line 393 in file User\Main.s
   Uses
      None
Comment: DLTQVLP unused
DLTQVLZFF 00000078

Symbol: DLTQVLZFF
   Definitions
      At line 151 in file User\Main.s
   Uses
      None
Comment: DLTQVLZFF unused
DLTQXYF 00000076

Symbol: DLTQXYF
   Definitions
      At line 149 in file User\Main.s
   Uses
      None
Comment: DLTQXYF unused
DQFSMM 00000051

Symbol: DQFSMM
   Definitions
      At line 105 in file User\Main.s
   Uses
      None
Comment: DQFSMM unused
DQFSV 0000004E

Symbol: DQFSV
   Definitions
      At line 101 in file User\Main.s
   Uses
      None
Comment: DQFSV unused
DQFSVHB 0000004F

Symbol: DQFSVHB
   Definitions
      At line 102 in file User\Main.s
   Uses
      None
Comment: DQFSVHB unused
DSF 000000F4

Symbol: DSF
   Definitions
      At line 306 in file User\Main.s
   Uses
      None
Comment: DSF unused
DTNUM 0000013E

Symbol: DTNUM



ARM Macro Assembler    Page 10 Alphabetic symbol ordering
Relocatable symbols

   Definitions
      At line 389 in file User\Main.s
   Uses
      None
Comment: DTNUM unused
DTUS 00000080

Symbol: DTUS
   Definitions
      At line 160 in file User\Main.s
   Uses
      None
Comment: DTUS unused
DTUSP 00000081

Symbol: DTUSP
   Definitions
      At line 161 in file User\Main.s
   Uses
      None
Comment: DTUSP unused
DXFSEC 000000B8

Symbol: DXFSEC
   Definitions
      At line 230 in file User\Main.s
   Uses
      None
Comment: DXFSEC unused
ED 000000BE

Symbol: ED
   Definitions
      At line 237 in file User\Main.s
   Uses
      None
Comment: ED unused
EINUM 00000171

Symbol: EINUM
   Definitions
      At line 443 in file User\Main.s
   Uses
      None
Comment: EINUM unused
EK 000000BA

Symbol: EK
   Definitions
      At line 233 in file User\Main.s
   Uses
      None
Comment: EK unused
EKIS0SEC 00000138

Symbol: EKIS0SEC
   Definitions
      At line 381 in file User\Main.s
   Uses



ARM Macro Assembler    Page 11 Alphabetic symbol ordering
Relocatable symbols

      None
Comment: EKIS0SEC unused
EKIS0SECS 00000139

Symbol: EKIS0SECS
   Definitions
      At line 382 in file User\Main.s
   Uses
      None
Comment: EKIS0SECS unused
EKMS 000000CE

Symbol: EKMS
   Definitions
      At line 259 in file User\Main.s
   Uses
      None
Comment: EKMS unused
EKVALZFF 00000077

Symbol: EKVALZFF
   Definitions
      At line 150 in file User\Main.s
   Uses
      None
Comment: EKVALZFF unused
EK_0 000000BB

Symbol: EK_0
   Definitions
      At line 234 in file User\Main.s
   Uses
      None
Comment: EK_0 unused
FANCHMS 0000014B

Symbol: FANCHMS
   Definitions
      At line 405 in file User\Main.s
   Uses
      None
Comment: FANCHMS unused
FANMS 00000005

Symbol: FANMS
   Definitions
      At line 15 in file User\Main.s
   Uses
      None
Comment: FANMS unused
FANSE 00000006

Symbol: FANSE
   Definitions
      At line 16 in file User\Main.s
   Uses
      None
Comment: FANSE unused
FANSEC 00000050



ARM Macro Assembler    Page 12 Alphabetic symbol ordering
Relocatable symbols


Symbol: FANSEC
   Definitions
      At line 103 in file User\Main.s
   Uses
      None
Comment: FANSEC unused
FANTMS 000000A8

Symbol: FANTMS
   Definitions
      At line 213 in file User\Main.s
   Uses
      None
Comment: FANTMS unused
FDFYHF 0000002A

Symbol: FDFYHF
   Definitions
      At line 58 in file User\Main.s
   Uses
      None
Comment: FDFYHF unused
FHQVL 00000100

Symbol: FHQVL
   Definitions
      At line 318 in file User\Main.s
   Uses
      None
Comment: FHQVL unused
FIRAF 00000014

Symbol: FIRAF
   Definitions
      At line 32 in file User\Main.s
   Uses
      None
Comment: FIRAF unused
FIRBF 00000015

Symbol: FIRBF
   Definitions
      At line 33 in file User\Main.s
   Uses
      None
Comment: FIRBF unused
FIRCF 00000016

Symbol: FIRCF
   Definitions
      At line 34 in file User\Main.s
   Uses
      None
Comment: FIRCF unused
FIRXSBF 0000006D

Symbol: FIRXSBF
   Definitions



ARM Macro Assembler    Page 13 Alphabetic symbol ordering
Relocatable symbols

      At line 139 in file User\Main.s
   Uses
      None
Comment: FIRXSBF unused
FJGZF 0000003F

Symbol: FJGZF
   Definitions
      At line 82 in file User\Main.s
   Uses
      None
Comment: FJGZF unused
FJGZMS 00000079

Symbol: FJGZMS
   Definitions
      At line 152 in file User\Main.s
   Uses
      None
Comment: FJGZMS unused
FJGZSEC 00000057

Symbol: FJGZSEC
   Definitions
      At line 112 in file User\Main.s
   Uses
      None
Comment: FJGZSEC unused
FJHQSOKF 00000032

Symbol: FJHQSOKF
   Definitions
      At line 68 in file User\Main.s
   Uses
      None
Comment: FJHQSOKF unused
FJMCJCSEC 0000013A

Symbol: FJMCJCSEC
   Definitions
      At line 385 in file User\Main.s
   Uses
      None
Comment: FJMCJCSEC unused
FJQDF 00000033

Symbol: FJQDF
   Definitions
      At line 69 in file User\Main.s
   Uses
      None
Comment: FJQDF unused
FJQQSOKF 0000002C

Symbol: FJQQSOKF
   Definitions
      At line 60 in file User\Main.s
   Uses
      None



ARM Macro Assembler    Page 14 Alphabetic symbol ordering
Relocatable symbols

Comment: FJQQSOKF unused
FJTJOKF 00000041

Symbol: FJTJOKF
   Definitions
      At line 84 in file User\Main.s
   Uses
      None
Comment: FJTJOKF unused
FSBJTJF 00000071

Symbol: FSBJTJF
   Definitions
      At line 144 in file User\Main.s
   Uses
      None
Comment: FSBJTJF unused
FSDTMS 0000012B

Symbol: FSDTMS
   Definitions
      At line 368 in file User\Main.s
   Uses
      None
Comment: FSDTMS unused
FSMS 0000001F

Symbol: FSMS
   Definitions
      At line 44 in file User\Main.s
   Uses
      None
Comment: FSMS unused
FYMS 00000127

Symbol: FYMS
   Definitions
      At line 364 in file User\Main.s
   Uses
      None
Comment: FYMS unused
GCMF 00000039

Symbol: GCMF
   Definitions
      At line 75 in file User\Main.s
   Uses
      None
Comment: GCMF unused
GDFSF 00000044

Symbol: GDFSF
   Definitions
      At line 89 in file User\Main.s
   Uses
      None
Comment: GDFSF unused
GDPF 00000028




ARM Macro Assembler    Page 15 Alphabetic symbol ordering
Relocatable symbols

Symbol: GDPF
   Definitions
      At line 56 in file User\Main.s
   Uses
      None
Comment: GDPF unused
GFJF 00000035

Symbol: GFJF
   Definitions
      At line 71 in file User\Main.s
   Uses
      None
Comment: GFJF unused
GFYHSEC 0000014D

Symbol: GFYHSEC
   Definitions
      At line 407 in file User\Main.s
   Uses
      None
Comment: GFYHSEC unused
GRBF 0000003A

Symbol: GRBF
   Definitions
      At line 77 in file User\Main.s
   Uses
      None
Comment: GRBF unused
GRBXSDKMS 0000008D

Symbol: GRBXSDKMS
   Definitions
      At line 178 in file User\Main.s
   Uses
      None
Comment: GRBXSDKMS unused
GRBXSGZF 00000040

Symbol: GRBXSGZF
   Definitions
      At line 83 in file User\Main.s
   Uses
      None
Comment: GRBXSGZF unused
GRBXSZCMS 0000008C

Symbol: GRBXSZCMS
   Definitions
      At line 177 in file User\Main.s
   Uses
      None
Comment: GRBXSZCMS unused
GWSEC 00000058

Symbol: GWSEC
   Definitions
      At line 114 in file User\Main.s



ARM Macro Assembler    Page 16 Alphabetic symbol ordering
Relocatable symbols

   Uses
      None
Comment: GWSEC unused
HALFSECFJMC 000000E5

Symbol: HALFSECFJMC
   Definitions
      At line 290 in file User\Main.s
   Uses
      None
Comment: HALFSECFJMC unused
HDXFF 00000070

Symbol: HDXFF
   Definitions
      At line 142 in file User\Main.s
   Uses
      None
Comment: HDXFF unused
HFVL 0000008A

Symbol: HFVL
   Definitions
      At line 174 in file User\Main.s
   Uses
      None
Comment: HFVL unused
HJF 000000D4

Symbol: HJF
   Definitions
      At line 266 in file User\Main.s
   Uses
      None
Comment: HJF unused
HOUR 00000002

Symbol: HOUR
   Definitions
      At line 11 in file User\Main.s
   Uses
      None
Comment: HOUR unused
HPT 00000089

Symbol: HPT
   Definitions
      At line 173 in file User\Main.s
   Uses
      None
Comment: HPT unused
HPVL 000000EB

Symbol: HPVL
   Definitions
      At line 296 in file User\Main.s
   Uses
      None
Comment: HPVL unused



ARM Macro Assembler    Page 17 Alphabetic symbol ordering
Relocatable symbols

HQSSEC 0000004D

Symbol: HQSSEC
   Definitions
      At line 100 in file User\Main.s
   Uses
      None
Comment: HQSSEC unused
HYFKF 0000006A

Symbol: HYFKF
   Definitions
      At line 136 in file User\Main.s
   Uses
      None
Comment: HYFKF unused
HYFKMS 00000008

Symbol: HYFKMS
   Definitions
      At line 18 in file User\Main.s
   Uses
      None
Comment: HYFKMS unused
HYQZZDF 0000002D

Symbol: HYQZZDF
   Definitions
      At line 61 in file User\Main.s
   Uses
      None
Comment: HYQZZDF unused
HYQZZXF 0000002E

Symbol: HYQZZXF
   Definitions
      At line 62 in file User\Main.s
   Uses
      None
Comment: HYQZZXF unused
Header Data 00000000

Symbol: Header Data
   Definitions
      At line 6 in file User\Main.s
   Uses
      None
Comment: Header Data unused
INFJHQS 00000042

Symbol: INFJHQS
   Definitions
      At line 87 in file User\Main.s
   Uses
      None
Comment: INFJHQS unused
INHQFF 00000108

Symbol: INHQFF



ARM Macro Assembler    Page 18 Alphabetic symbol ordering
Relocatable symbols

   Definitions
      At line 327 in file User\Main.s
   Uses
      None
Comment: INHQFF unused
INHYJCF 0000010F

Symbol: INHYJCF
   Definitions
      At line 335 in file User\Main.s
   Uses
      None
Comment: INHYJCF unused
INTHF 00000030

Symbol: INTHF
   Definitions
      At line 64 in file User\Main.s
   Uses
      None
Comment: INTHF unused
INTLF 00000027

Symbol: INTLF
   Definitions
      At line 53 in file User\Main.s
   Uses
      None
Comment: INTLF unused
INWTSTWC 000000FF

Symbol: INWTSTWC
   Definitions
      At line 317 in file User\Main.s
   Uses
      None
Comment: INWTSTWC unused
JDQKGF 00000063

Symbol: JDQKGF
   Definitions
      At line 128 in file User\Main.s
   Uses
      None
Comment: JDQKGF unused
JHYF 0000002F

Symbol: JHYF
   Definitions
      At line 63 in file User\Main.s
   Uses
      None
Comment: JHYF unused
JLMDF 0000011A

Symbol: JLMDF
   Definitions
      At line 348 in file User\Main.s
   Uses



ARM Macro Assembler    Page 19 Alphabetic symbol ordering
Relocatable symbols

      None
Comment: JLMDF unused
JRH30MF 0000003E

Symbol: JRH30MF
   Definitions
      At line 81 in file User\Main.s
   Uses
      None
Comment: JRH30MF unused
JRMIN 00000059

Symbol: JRMIN
   Definitions
      At line 115 in file User\Main.s
   Uses
      None
Comment: JRMIN unused
JSNUM 00000152

Symbol: JSNUM
   Definitions
      At line 412 in file User\Main.s
   Uses
      None
Comment: JSNUM unused
JSNUM1 00000153

Symbol: JSNUM1
   Definitions
      At line 413 in file User\Main.s
   Uses
      None
Comment: JSNUM1 unused
JSNUM2 00000154

Symbol: JSNUM2
   Definitions
      At line 414 in file User\Main.s
   Uses
      None
Comment: JSNUM2 unused
JSOKVRF 000000D8

Symbol: JSOKVRF
   Definitions
      At line 271 in file User\Main.s
   Uses
      None
Comment: JSOKVRF unused
JSOVRF 00000029

Symbol: JSOVRF
   Definitions
      At line 57 in file User\Main.s
   Uses
      None
Comment: JSOVRF unused
JSYXPWMF 00000111



ARM Macro Assembler    Page 20 Alphabetic symbol ordering
Relocatable symbols


Symbol: JSYXPWMF
   Definitions
      At line 337 in file User\Main.s
   Uses
      None
Comment: JSYXPWMF unused
JUYHSEC 00000144

Symbol: JUYHSEC
   Definitions
      At line 395 in file User\Main.s
   Uses
      None
Comment: JUYHSEC unused
JYMS 000000C6

Symbol: JYMS
   Definitions
      At line 251 in file User\Main.s
   Uses
      None
Comment: JYMS unused
JYSTWF 000000DB

Symbol: JYSTWF
   Definitions
      At line 274 in file User\Main.s
   Uses
      None
Comment: JYSTWF unused
JYWRF 0000006F

Symbol: JYWRF
   Definitions
      At line 141 in file User\Main.s
   Uses
      None
Comment: JYWRF unused
KD 000000C1

Symbol: KD
   Definitions
      At line 240 in file User\Main.s
   Uses
      None
Comment: KD unused
KFYHSEC 0000014C

Symbol: KFYHSEC
   Definitions
      At line 406 in file User\Main.s
   Uses
      None
Comment: KFYHSEC unused
KI 000000C0

Symbol: KI
   Definitions



ARM Macro Assembler    Page 21 Alphabetic symbol ordering
Relocatable symbols

      At line 239 in file User\Main.s
   Uses
      None
Comment: KI unused
KIEK 000000A4

Symbol: KIEK
   Definitions
      At line 208 in file User\Main.s
   Uses
      None
Comment: KIEK unused
KM 0000000C

Symbol: KM
   Definitions
      At line 23 in file User\Main.s
   Uses
      None
Comment: KM unused
KM1 00000010

Symbol: KM1
   Definitions
      At line 27 in file User\Main.s
   Uses
      None
Comment: KM1 unused
KP 0000000B

Symbol: KP
   Definitions
      At line 22 in file User\Main.s
   Uses
      None
Comment: KP unused
KP1 0000000F

Symbol: KP1
   Definitions
      At line 26 in file User\Main.s
   Uses
      None
Comment: KP1 unused
KPD 000000BF

Symbol: KPD
   Definitions
      At line 238 in file User\Main.s
   Uses
      None
Comment: KPD unused
KSJRSEC 00000147

Symbol: KSJRSEC
   Definitions
      At line 401 in file User\Main.s
   Uses
      None



ARM Macro Assembler    Page 22 Alphabetic symbol ordering
Relocatable symbols

Comment: KSJRSEC unused
KWTFIJRF 000000F5

Symbol: KWTFIJRF
   Definitions
      At line 307 in file User\Main.s
   Uses
      None
Comment: KWTFIJRF unused
KZDFF 00000037

Symbol: KZDFF
   Definitions
      At line 73 in file User\Main.s
   Uses
      None
Comment: KZDFF unused
LCCMD1 0000011E

Symbol: LCCMD1
   Definitions
      At line 354 in file User\Main.s
   Uses
      None
Comment: LCCMD1 unused
LCCMD2 0000011F

Symbol: LCCMD2
   Definitions
      At line 355 in file User\Main.s
   Uses
      None
Comment: LCCMD2 unused
LCCMD3 00000120

Symbol: LCCMD3
   Definitions
      At line 356 in file User\Main.s
   Uses
      None
Comment: LCCMD3 unused
LCCMD4 00000121

Symbol: LCCMD4
   Definitions
      At line 357 in file User\Main.s
   Uses
      None
Comment: LCCMD4 unused
LCCMD5 00000122

Symbol: LCCMD5
   Definitions
      At line 358 in file User\Main.s
   Uses
      None
Comment: LCCMD5 unused
LCCMD6 00000123




ARM Macro Assembler    Page 23 Alphabetic symbol ordering
Relocatable symbols

Symbol: LCCMD6
   Definitions
      At line 359 in file User\Main.s
   Uses
      None
Comment: LCCMD6 unused
LCCMD7 00000124

Symbol: LCCMD7
   Definitions
      At line 360 in file User\Main.s
   Uses
      None
Comment: LCCMD7 unused
LCCMD8 00000125

Symbol: LCCMD8
   Definitions
      At line 361 in file User\Main.s
   Uses
      None
Comment: LCCMD8 unused
LCCMD9 00000126

Symbol: LCCMD9
   Definitions
      At line 362 in file User\Main.s
   Uses
      None
Comment: LCCMD9 unused
LCDBUF 0000004A

Symbol: LCDBUF
   Definitions
      At line 95 in file User\Main.s
   Uses
      None
Comment: LCDBUF unused
LCDBUF1 0000004B

Symbol: LCDBUF1
   Definitions
      At line 96 in file User\Main.s
   Uses
      None
Comment: LCDBUF1 unused
LCM10SF 000000D1

Symbol: LCM10SF
   Definitions
      At line 263 in file User\Main.s
   Uses
      None
Comment: LCM10SF unused
LCTMP 00000022

Symbol: LCTMP
   Definitions
      At line 47 in file User\Main.s



ARM Macro Assembler    Page 24 Alphabetic symbol ordering
Relocatable symbols

   Uses
      None
Comment: LCTMP unused
LCTMPV 00000026

Symbol: LCTMPV
   Definitions
      At line 51 in file User\Main.s
   Uses
      None
Comment: LCTMPV unused
LCVAL 00000023

Symbol: LCVAL
   Definitions
      At line 48 in file User\Main.s
   Uses
      None
Comment: LCVAL unused
LCWRO 0000000A

Symbol: LCWRO
   Definitions
      At line 21 in file User\Main.s
   Uses
      None
Comment: LCWRO unused
LDBCNUM 000000F0

Symbol: LDBCNUM
   Definitions
      At line 301 in file User\Main.s
   Uses
      None
Comment: LDBCNUM unused
LDTMP 0000009B

Symbol: LDTMP
   Definitions
      At line 199 in file User\Main.s
   Uses
      None
Comment: LDTMP unused
LDVAL 0000009C

Symbol: LDVAL
   Definitions
      At line 200 in file User\Main.s
   Uses
      None
Comment: LDVAL unused
LDWER 00000046

Symbol: LDWER
   Definitions
      At line 91 in file User\Main.s
   Uses
      None
Comment: LDWER unused



ARM Macro Assembler    Page 25 Alphabetic symbol ordering
Relocatable symbols

LEDKEYBUF1 0000015D

Symbol: LEDKEYBUF1
   Definitions
      At line 423 in file User\Main.s
   Uses
      None
Comment: LEDKEYBUF1 unused
LEDKEYBUF2 0000015E

Symbol: LEDKEYBUF2
   Definitions
      At line 424 in file User\Main.s
   Uses
      None
Comment: LEDKEYBUF2 unused
LEDKEYBUF3 0000015F

Symbol: LEDKEYBUF3
   Definitions
      At line 425 in file User\Main.s
   Uses
      None
Comment: LEDKEYBUF3 unused
LEDKEYBUF4 00000160

Symbol: LEDKEYBUF4
   Definitions
      At line 426 in file User\Main.s
   Uses
      None
Comment: LEDKEYBUF4 unused
LEDP 000000C7

Symbol: LEDP
   Definitions
      At line 252 in file User\Main.s
   Uses
      None
Comment: LEDP unused
LEDT 000000C8

Symbol: LEDT
   Definitions
      At line 253 in file User\Main.s
   Uses
      None
Comment: LEDT unused
LPTT 00000088

Symbol: LPTT
   Definitions
      At line 172 in file User\Main.s
   Uses
      None
Comment: LPTT unused
M11SF 00000101

Symbol: M11SF



ARM Macro Assembler    Page 26 Alphabetic symbol ordering
Relocatable symbols

   Definitions
      At line 320 in file User\Main.s
   Uses
      None
Comment: M11SF unused
M13SF 000000DF

Symbol: M13SF
   Definitions
      At line 278 in file User\Main.s
   Uses
      None
Comment: M13SF unused
M16SF 000000DD

Symbol: M16SF
   Definitions
      At line 276 in file User\Main.s
   Uses
      None
Comment: M16SF unused
M20SF 000000DE

Symbol: M20SF
   Definitions
      At line 277 in file User\Main.s
   Uses
      None
Comment: M20SF unused
MAXSEC 0000007E

Symbol: MAXSEC
   Definitions
      At line 157 in file User\Main.s
   Uses
      None
Comment: MAXSEC unused
MBBLFPWM 00000052

Symbol: MBBLFPWM
   Definitions
      At line 106 in file User\Main.s
   Uses
      None
Comment: MBBLFPWM unused
MBBLFPWMV 0000007B

Symbol: MBBLFPWMV
   Definitions
      At line 154 in file User\Main.s
   Uses
      None
Comment: MBBLFPWMV unused
MBFANTMSH 000000AA

Symbol: MBFANTMSH
   Definitions
      At line 215 in file User\Main.s
   Uses



ARM Macro Assembler    Page 27 Alphabetic symbol ordering
Relocatable symbols

      None
Comment: MBFANTMSH unused
MBFANTMSHV 000000AC

Symbol: MBFANTMSHV
   Definitions
      At line 217 in file User\Main.s
   Uses
      None
Comment: MBFANTMSHV unused
MBFANTMSL 000000A9

Symbol: MBFANTMSL
   Definitions
      At line 214 in file User\Main.s
   Uses
      None
Comment: MBFANTMSL unused
MBFANTMSLV 000000AB

Symbol: MBFANTMSLV
   Definitions
      At line 216 in file User\Main.s
   Uses
      None
Comment: MBFANTMSLV unused
MBFANTMSMAXV 0000007D

Symbol: MBFANTMSMAXV
   Definitions
      At line 156 in file User\Main.s
   Uses
      None
Comment: MBFANTMSMAXV unused
MBFANTMSMINV 0000007C

Symbol: MBFANTMSMINV
   Definitions
      At line 155 in file User\Main.s
   Uses
      None
Comment: MBFANTMSMINV unused
MBFANTMSV 0000005A

Symbol: MBFANTMSV
   Definitions
      At line 116 in file User\Main.s
   Uses
      None
Comment: MBFANTMSV unused
MBIT 00000091

Symbol: MBIT
   Definitions
      At line 186 in file User\Main.s
   Uses
      None
Comment: MBIT unused
MBMC 0000004C



ARM Macro Assembler    Page 28 Alphabetic symbol ordering
Relocatable symbols


Symbol: MBMC
   Definitions
      At line 99 in file User\Main.s
   Uses
      None
Comment: MBMC unused
MBOUTTMP 000000EF

Symbol: MBOUTTMP
   Definitions
      At line 300 in file User\Main.s
   Uses
      None
Comment: MBOUTTMP unused
MINSEC 0000007F

Symbol: MINSEC
   Definitions
      At line 158 in file User\Main.s
   Uses
      None
Comment: MINSEC unused
MINUTE 00000001

Symbol: MINUTE
   Definitions
      At line 10 in file User\Main.s
   Uses
      None
Comment: MINUTE unused
MNUM 0000001B

Symbol: MNUM
   Definitions
      At line 39 in file User\Main.s
   Uses
      None
Comment: MNUM unused
MS 00000004

Symbol: MS
   Definitions
      At line 13 in file User\Main.s
   Uses
      None
Comment: MS unused
NCOLDWATERSEC 0000015B

Symbol: NCOLDWATERSEC
   Definitions
      At line 421 in file User\Main.s
   Uses
      None
Comment: NCOLDWATERSEC unused
NHYFKF 00000062

Symbol: NHYFKF
   Definitions



ARM Macro Assembler    Page 29 Alphabetic symbol ordering
Relocatable symbols

      At line 127 in file User\Main.s
   Uses
      None
Comment: NHYFKF unused
NHYFKMS 00000060

Symbol: NHYFKMS
   Definitions
      At line 122 in file User\Main.s
   Uses
      None
Comment: NHYFKMS unused
NOWQYL0 000000A0

Symbol: NOWQYL0
   Definitions
      At line 204 in file User\Main.s
   Uses
      None
Comment: NOWQYL0 unused
NSSMIN 000000B7

Symbol: NSSMIN
   Definitions
      At line 229 in file User\Main.s
   Uses
      None
Comment: NSSMIN unused
NWHATMS 00000158

Symbol: NWHATMS
   Definitions
      At line 418 in file User\Main.s
   Uses
      None
Comment: NWHATMS unused
NWHATSEC 00000159

Symbol: NWHATSEC
   Definitions
      At line 419 in file User\Main.s
   Uses
      None
Comment: NWHATSEC unused
ON 0000002B

Symbol: ON
   Definitions
      At line 59 in file User\Main.s
   Uses
      None
Comment: ON unused
ONESECFJMCH 000000E4

Symbol: ONESECFJMCH
   Definitions
      At line 289 in file User\Main.s
   Uses
      None



ARM Macro Assembler    Page 30 Alphabetic symbol ordering
Relocatable symbols

Comment: ONESECFJMCH unused
ONESECFJMCL 000000E3

Symbol: ONESECFJMCL
   Definitions
      At line 288 in file User\Main.s
   Uses
      None
Comment: ONESECFJMCL unused
OUTTMP 00000031

Symbol: OUTTMP
   Definitions
      At line 65 in file User\Main.s
   Uses
      None
Comment: OUTTMP unused
P04OUTMS 00000161

Symbol: P04OUTMS
   Definitions
      At line 427 in file User\Main.s
   Uses
      None
Comment: P04OUTMS unused
P11F 00000018

Symbol: P11F
   Definitions
      At line 36 in file User\Main.s
   Uses
      None
Comment: P11F unused
PAG10 0000011D

Symbol: PAG10
   Definitions
      At line 353 in file User\Main.s
   Uses
      None
Comment: PAG10 unused
PB 0000011B

Symbol: PB
   Definitions
      At line 350 in file User\Main.s
   Uses
      None
Comment: PB unused
PB1 000000C9

Symbol: PB1
   Definitions
      At line 254 in file User\Main.s
   Uses
      None
Comment: PB1 unused
PB2 000000CA




ARM Macro Assembler    Page 31 Alphabetic symbol ordering
Relocatable symbols

Symbol: PB2
   Definitions
      At line 255 in file User\Main.s
   Uses
      None
Comment: PB2 unused
PB3 000000CB

Symbol: PB3
   Definitions
      At line 256 in file User\Main.s
   Uses
      None
Comment: PB3 unused
PB4 000000CC

Symbol: PB4
   Definitions
      At line 257 in file User\Main.s
   Uses
      None
Comment: PB4 unused
PBB0 00000165

Symbol: PBB0
   Definitions
      At line 431 in file User\Main.s
   Uses
      None
Comment: PBB0 unused
PBB1 00000166

Symbol: PBB1
   Definitions
      At line 432 in file User\Main.s
   Uses
      None
Comment: PBB1 unused
PBB10 0000016F

Symbol: PBB10
   Definitions
      At line 441 in file User\Main.s
   Uses
      None
Comment: PBB10 unused
PBB2 00000167

Symbol: PBB2
   Definitions
      At line 433 in file User\Main.s
   Uses
      None
Comment: PBB2 unused
PBB3 00000168

Symbol: PBB3
   Definitions
      At line 434 in file User\Main.s



ARM Macro Assembler    Page 32 Alphabetic symbol ordering
Relocatable symbols

   Uses
      None
Comment: PBB3 unused
PBB4 00000169

Symbol: PBB4
   Definitions
      At line 435 in file User\Main.s
   Uses
      None
Comment: PBB4 unused
PBB5 0000016A

Symbol: PBB5
   Definitions
      At line 436 in file User\Main.s
   Uses
      None
Comment: PBB5 unused
PBB6 0000016B

Symbol: PBB6
   Definitions
      At line 437 in file User\Main.s
   Uses
      None
Comment: PBB6 unused
PBB7 0000016C

Symbol: PBB7
   Definitions
      At line 438 in file User\Main.s
   Uses
      None
Comment: PBB7 unused
PBB8 0000016D

Symbol: PBB8
   Definitions
      At line 439 in file User\Main.s
   Uses
      None
Comment: PBB8 unused
PBB9 0000016E

Symbol: PBB9
   Definitions
      At line 440 in file User\Main.s
   Uses
      None
Comment: PBB9 unused
PIDNUM 00000145

Symbol: PIDNUM
   Definitions
      At line 396 in file User\Main.s
   Uses
      None
Comment: PIDNUM unused



ARM Macro Assembler    Page 33 Alphabetic symbol ordering
Relocatable symbols

PIDVL 00000084

Symbol: PIDVL
   Definitions
      At line 167 in file User\Main.s
   Uses
      None
Comment: PIDVL unused
PIDVLP 000000FD

Symbol: PIDVLP
   Definitions
      At line 315 in file User\Main.s
   Uses
      None
Comment: PIDVLP unused
PIDZFF 00000074

Symbol: PIDZFF
   Definitions
      At line 147 in file User\Main.s
   Uses
      None
Comment: PIDZFF unused
Q0MS 00000151

Symbol: Q0MS
   Definitions
      At line 411 in file User\Main.s
   Uses
      None
Comment: Q0MS unused
Q0VLP1 00000109

Symbol: Q0VLP1
   Definitions
      At line 328 in file User\Main.s
   Uses
      None
Comment: Q0VLP1 unused
Q0VLP2 0000010A

Symbol: Q0VLP2
   Definitions
      At line 329 in file User\Main.s
   Uses
      None
Comment: Q0VLP2 unused
Q0VLP3 0000010B

Symbol: Q0VLP3
   Definitions
      At line 330 in file User\Main.s
   Uses
      None
Comment: Q0VLP3 unused
QOCJJRVL 0000014A

Symbol: QOCJJRVL



ARM Macro Assembler    Page 34 Alphabetic symbol ordering
Relocatable symbols

   Definitions
      At line 404 in file User\Main.s
   Uses
      None
Comment: QOCJJRVL unused
QQNUM 00000150

Symbol: QQNUM
   Definitions
      At line 410 in file User\Main.s
   Uses
      None
Comment: QQNUM unused
QQSMS 000000A3

Symbol: QQSMS
   Definitions
      At line 207 in file User\Main.s
   Uses
      None
Comment: QQSMS unused
QQSMSV 000000F1

Symbol: QQSMSV
   Definitions
      At line 302 in file User\Main.s
   Uses
      None
Comment: QQSMSV unused
QSLFDF 00000066

Symbol: QSLFDF
   Definitions
      At line 131 in file User\Main.s
   Uses
      None
Comment: QSLFDF unused
QYL0 00000098

Symbol: QYL0
   Definitions
      At line 195 in file User\Main.s
   Uses
      None
Comment: QYL0 unused
QYL0P 00000143

Symbol: QYL0P
   Definitions
      At line 394 in file User\Main.s
   Uses
      None
Comment: QYL0P unused
QYL0VL 0000009E

Symbol: QYL0VL
   Definitions
      At line 202 in file User\Main.s
   Uses



ARM Macro Assembler    Page 35 Alphabetic symbol ordering
Relocatable symbols

      None
Comment: QYL0VL unused
QYL0VLP 0000009F

Symbol: QYL0VLP
   Definitions
      At line 203 in file User\Main.s
   Uses
      None
Comment: QYL0VLP unused
QZAJADVL 00000129

Symbol: QZAJADVL
   Definitions
      At line 366 in file User\Main.s
   Uses
      None
Comment: QZAJADVL unused
QZAJMSP 0000013C

Symbol: QZAJMSP
   Definitions
      At line 387 in file User\Main.s
   Uses
      None
Comment: QZAJMSP unused
RDATAV 0000008F

Symbol: RDATAV
   Definitions
      At line 182 in file User\Main.s
   Uses
      None
Comment: RDATAV unused
RDWRF 00000017

Symbol: RDWRF
   Definitions
      At line 35 in file User\Main.s
   Uses
      None
Comment: RDWRF unused
RGMQ11SF 000000F8

Symbol: RGMQ11SF
   Definitions
      At line 310 in file User\Main.s
   Uses
      None
Comment: RGMQ11SF unused
RGMQ13SF 00000104

Symbol: RGMQ13SF
   Definitions
      At line 323 in file User\Main.s
   Uses
      None
Comment: RGMQ13SF unused
RGMQ16SF 000000F6



ARM Macro Assembler    Page 36 Alphabetic symbol ordering
Relocatable symbols


Symbol: RGMQ16SF
   Definitions
      At line 308 in file User\Main.s
   Uses
      None
Comment: RGMQ16SF unused
RGMQ20SF 00000106

Symbol: RGMQ20SF
   Definitions
      At line 325 in file User\Main.s
   Uses
      None
Comment: RGMQ20SF unused
RGQF 00000102

Symbol: RGQF
   Definitions
      At line 321 in file User\Main.s
   Uses
      None
Comment: RGQF unused
RGQQYF 00000110

Symbol: RGQQYF
   Definitions
      At line 336 in file User\Main.s
   Uses
      None
Comment: RGQQYF unused
SECOND 00000000

Symbol: SECOND
   Definitions
      At line 9 in file User\Main.s
   Uses
      None
Comment: SECOND unused
SETHALFSECFJMC 000000EA

Symbol: SETHALFSECFJMC
   Definitions
      At line 295 in file User\Main.s
   Uses
      None
Comment: SETHALFSECFJMC unused
SETONESECFJMCH 000000E9

Symbol: SETONESECFJMCH
   Definitions
      At line 294 in file User\Main.s
   Uses
      None
Comment: SETONESECFJMCH unused
SETONESECFJMCL 000000E8

Symbol: SETONESECFJMCL
   Definitions



ARM Macro Assembler    Page 37 Alphabetic symbol ordering
Relocatable symbols

      At line 293 in file User\Main.s
   Uses
      None
Comment: SETONESECFJMCL unused
SETTWOSECFJMCH 000000E7

Symbol: SETTWOSECFJMCH
   Definitions
      At line 292 in file User\Main.s
   Uses
      None
Comment: SETTWOSECFJMCH unused
SETTWOSECFJMCL 000000E6

Symbol: SETTWOSECFJMCL
   Definitions
      At line 291 in file User\Main.s
   Uses
      None
Comment: SETTWOSECFJMCL unused
SI 000000BC

Symbol: SI
   Definitions
      At line 235 in file User\Main.s
   Uses
      None
Comment: SI unused
SI_0 000000BD

Symbol: SI_0
   Definitions
      At line 236 in file User\Main.s
   Uses
      None
Comment: SI_0 unused
SLBJ1F 000000D5

Symbol: SLBJ1F
   Definitions
      At line 267 in file User\Main.s
   Uses
      None
Comment: SLBJ1F unused
SLBJ2F 000000D6

Symbol: SLBJ2F
   Definitions
      At line 268 in file User\Main.s
   Uses
      None
Comment: SLBJ2F unused
SLBJ3F 000000D7

Symbol: SLBJ3F
   Definitions
      At line 269 in file User\Main.s
   Uses
      None



ARM Macro Assembler    Page 38 Alphabetic symbol ordering
Relocatable symbols

Comment: SLBJ3F unused
SLLMLMS 0000015C

Symbol: SLLMLMS
   Definitions
      At line 422 in file User\Main.s
   Uses
      None
Comment: SLLMLMS unused
SLLNUM 000000E0

Symbol: SLLNUM
   Definitions
      At line 279 in file User\Main.s
   Uses
      None
Comment: SLLNUM unused
SLLNUMP1 00000131

Symbol: SLLNUMP1
   Definitions
      At line 374 in file User\Main.s
   Uses
      None
Comment: SLLNUMP1 unused
SLLNUMP1V 00000132

Symbol: SLLNUMP1V
   Definitions
      At line 375 in file User\Main.s
   Uses
      None
Comment: SLLNUMP1V unused
SLLNUMP2 00000133

Symbol: SLLNUMP2
   Definitions
      At line 376 in file User\Main.s
   Uses
      None
Comment: SLLNUMP2 unused
SLLNUMV 00000155

Symbol: SLLNUMV
   Definitions
      At line 415 in file User\Main.s
   Uses
      None
Comment: SLLNUMV unused
SLLSEC 0000012F

Symbol: SLLSEC
   Definitions
      At line 372 in file User\Main.s
   Uses
      None
Comment: SLLSEC unused
SLLSECP 00000130




ARM Macro Assembler    Page 39 Alphabetic symbol ordering
Relocatable symbols

Symbol: SLLSECP
   Definitions
      At line 373 in file User\Main.s
   Uses
      None
Comment: SLLSECP unused
SLMS 00000128

Symbol: SLMS
   Definitions
      At line 365 in file User\Main.s
   Uses
      None
Comment: SLMS unused
SLNUM 000000B3

Symbol: SLNUM
   Definitions
      At line 225 in file User\Main.s
   Uses
      None
Comment: SLNUM unused
SLSTF 00000012

Symbol: SLSTF
   Definitions
      At line 30 in file User\Main.s
   Uses
      None
Comment: SLSTF unused
SLUSL 000000B4

Symbol: SLUSL
   Definitions
      At line 226 in file User\Main.s
   Uses
      None
Comment: SLUSL unused
SLUSL1 000000AF

Symbol: SLUSL1
   Definitions
      At line 221 in file User\Main.s
   Uses
      None
Comment: SLUSL1 unused
SLUSL2 000000B1

Symbol: SLUSL2
   Definitions
      At line 223 in file User\Main.s
   Uses
      None
Comment: SLUSL2 unused
SLUSLP 000000B6

Symbol: SLUSLP
   Definitions
      At line 228 in file User\Main.s



ARM Macro Assembler    Page 40 Alphabetic symbol ordering
Relocatable symbols

   Uses
      None
Comment: SLUSLP unused
STOKF 0000000E

Symbol: STOKF
   Definitions
      At line 25 in file User\Main.s
   Uses
      None
Comment: STOKF unused
STSEC 000000CF

Symbol: STSEC
   Definitions
      At line 260 in file User\Main.s
   Uses
      None
Comment: STSEC unused
STWD 00000090

Symbol: STWD
   Definitions
      At line 185 in file User\Main.s
   Uses
      None
Comment: STWD unused
STWDP 0000012D

Symbol: STWDP
   Definitions
      At line 370 in file User\Main.s
   Uses
      None
Comment: STWDP unused
TBJSJFP 00000067

Symbol: TBJSJFP
   Definitions
      At line 132 in file User\Main.s
   Uses
      None
Comment: TBJSJFP unused
TBLFF 00000069

Symbol: TBLFF
   Definitions
      At line 135 in file User\Main.s
   Uses
      None
Comment: TBLFF unused
TDATA0 00000092

Symbol: TDATA0
   Definitions
      At line 188 in file User\Main.s
   Uses
      None
Comment: TDATA0 unused



ARM Macro Assembler    Page 41 Alphabetic symbol ordering
Relocatable symbols

TDATA1 00000093

Symbol: TDATA1
   Definitions
      At line 189 in file User\Main.s
   Uses
      None
Comment: TDATA1 unused
TDATA2 00000094

Symbol: TDATA2
   Definitions
      At line 190 in file User\Main.s
   Uses
      None
Comment: TDATA2 unused
TDATA3 00000095

Symbol: TDATA3
   Definitions
      At line 191 in file User\Main.s
   Uses
      None
Comment: TDATA3 unused
TDATA4 00000096

Symbol: TDATA4
   Definitions
      At line 192 in file User\Main.s
   Uses
      None
Comment: TDATA4 unused
TDATA5 00000097

Symbol: TDATA5
   Definitions
      At line 193 in file User\Main.s
   Uses
      None
Comment: TDATA5 unused
TDHF 000000DA

Symbol: TDHF
   Definitions
      At line 273 in file User\Main.s
   Uses
      None
Comment: TDHF unused
TRQF 0000006C

Symbol: TRQF
   Definitions
      At line 138 in file User\Main.s
   Uses
      None
Comment: TRQF unused
TRYH11SF 000000F9

Symbol: TRYH11SF



ARM Macro Assembler    Page 42 Alphabetic symbol ordering
Relocatable symbols

   Definitions
      At line 311 in file User\Main.s
   Uses
      None
Comment: TRYH11SF unused
TRYH13SF 00000103

Symbol: TRYH13SF
   Definitions
      At line 322 in file User\Main.s
   Uses
      None
Comment: TRYH13SF unused
TRYH16SF 000000F7

Symbol: TRYH16SF
   Definitions
      At line 309 in file User\Main.s
   Uses
      None
Comment: TRYH16SF unused
TRYH20SF 00000105

Symbol: TRYH20SF
   Definitions
      At line 324 in file User\Main.s
   Uses
      None
Comment: TRYH20SF unused
TUS 000000B5

Symbol: TUS
   Definitions
      At line 227 in file User\Main.s
   Uses
      None
Comment: TUS unused
TWOSECFJMCH 000000E2

Symbol: TWOSECFJMCH
   Definitions
      At line 287 in file User\Main.s
   Uses
      None
Comment: TWOSECFJMCH unused
TWOSECFJMCL 000000E1

Symbol: TWOSECFJMCL
   Definitions
      At line 286 in file User\Main.s
   Uses
      None
Comment: TWOSECFJMCL unused
TXNUM 0000008B

Symbol: TXNUM
   Definitions
      At line 175 in file User\Main.s
   Uses



ARM Macro Assembler    Page 43 Alphabetic symbol ordering
Relocatable symbols

      None
Comment: TXNUM unused
TZHF 000000D9

Symbol: TZHF
   Definitions
      At line 272 in file User\Main.s
   Uses
      None
Comment: TZHF unused
US 00000003

Symbol: US
   Definitions
      At line 12 in file User\Main.s
   Uses
      None
Comment: US unused
WCTT 0000013F

Symbol: WCTT
   Definitions
      At line 390 in file User\Main.s
   Uses
      None
Comment: WCTT unused
WDNBHSEC 000000A2

Symbol: WDNBHSEC
   Definitions
      At line 206 in file User\Main.s
   Uses
      None
Comment: WDNBHSEC unused
WHATERKGF 00000011

Symbol: WHATERKGF
   Definitions
      At line 29 in file User\Main.s
   Uses
      None
Comment: WHATERKGF unused
WHATMS 000000FA

Symbol: WHATMS
   Definitions
      At line 312 in file User\Main.s
   Uses
      None
Comment: WHATMS unused
WHATSEC 00000148

Symbol: WHATSEC
   Definitions
      At line 402 in file User\Main.s
   Uses
      None
Comment: WHATSEC unused
WHATV1 00000149



ARM Macro Assembler    Page 44 Alphabetic symbol ordering
Relocatable symbols


Symbol: WHATV1
   Definitions
      At line 403 in file User\Main.s
   Uses
      None
Comment: WHATV1 unused
WHATV2 000000FE

Symbol: WHATV2
   Definitions
      At line 316 in file User\Main.s
   Uses
      None
Comment: WHATV2 unused
WHATVAL 00000099

Symbol: WHATVAL
   Definitions
      At line 196 in file User\Main.s
   Uses
      None
Comment: WHATVAL unused
WHATVALP 0000009A

Symbol: WHATVALP
   Definitions
      At line 197 in file User\Main.s
   Uses
      None
Comment: WHATVALP unused
WHATVALPV 00000141

Symbol: WHATVALPV
   Definitions
      At line 392 in file User\Main.s
   Uses
      None
Comment: WHATVALPV unused
WI7F 00000118

Symbol: WI7F
   Definitions
      At line 346 in file User\Main.s
   Uses
      None
Comment: WI7F unused
WIAJVL 0000011C

Symbol: WIAJVL
   Definitions
      At line 351 in file User\Main.s
   Uses
      None
Comment: WIAJVL unused
WINUM 00000170

Symbol: WINUM
   Definitions



ARM Macro Assembler    Page 45 Alphabetic symbol ordering
Relocatable symbols

      At line 442 in file User\Main.s
   Uses
      None
Comment: WINUM unused
WORK 0000008E

Symbol: WORK
   Definitions
      At line 180 in file User\Main.s
   Uses
      None
Comment: WORK unused
WREENUM 0000013D

Symbol: WREENUM
   Definitions
      At line 388 in file User\Main.s
   Uses
      None
Comment: WREENUM unused
WRNUM 000000A7

Symbol: WRNUM
   Definitions
      At line 211 in file User\Main.s
   Uses
      None
Comment: WRNUM unused
WUSXYF 00000065

Symbol: WUSXYF
   Definitions
      At line 130 in file User\Main.s
   Uses
      None
Comment: WUSXYF unused
WXFKJF 00000038

Symbol: WXFKJF
   Definitions
      At line 74 in file User\Main.s
   Uses
      None
Comment: WXFKJF unused
WXTXF 000000D3

Symbol: WXTXF
   Definitions
      At line 265 in file User\Main.s
   Uses
      None
Comment: WXTXF unused
XJYF 00000013

Symbol: XJYF
   Definitions
      At line 31 in file User\Main.s
   Uses
      None



ARM Macro Assembler    Page 46 Alphabetic symbol ordering
Relocatable symbols

Comment: XJYF unused
XKATXSEC 0000005C

Symbol: XKATXSEC
   Definitions
      At line 118 in file User\Main.s
   Uses
      None
Comment: XKATXSEC unused
XKBTXSEC 0000005D

Symbol: XKBTXSEC
   Definitions
      At line 119 in file User\Main.s
   Uses
      None
Comment: XKBTXSEC unused
XKCTXSEC 0000005E

Symbol: XKCTXSEC
   Definitions
      At line 120 in file User\Main.s
   Uses
      None
Comment: XKCTXSEC unused
XKGZF 00000036

Symbol: XKGZF
   Definitions
      At line 72 in file User\Main.s
   Uses
      None
Comment: XKGZF unused
XKQAF 00000047

Symbol: XKQAF
   Definitions
      At line 92 in file User\Main.s
   Uses
      None
Comment: XKQAF unused
XKQBF 00000048

Symbol: XKQBF
   Definitions
      At line 93 in file User\Main.s
   Uses
      None
Comment: XKQBF unused
XKQCF 00000049

Symbol: XKQCF
   Definitions
      At line 94 in file User\Main.s
   Uses
      None
Comment: XKQCF unused
XSBF 0000006E




ARM Macro Assembler    Page 47 Alphabetic symbol ordering
Relocatable symbols

Symbol: XSBF
   Definitions
      At line 140 in file User\Main.s
   Uses
      None
Comment: XSBF unused
XSBTXSEC 0000007A

Symbol: XSBTXSEC
   Definitions
      At line 153 in file User\Main.s
   Uses
      None
Comment: XSBTXSEC unused
XSCJJRF 0000003C

Symbol: XSCJJRF
   Definitions
      At line 79 in file User\Main.s
   Uses
      None
Comment: XSCJJRF unused
XSF 000000F2

Symbol: XSF
   Definitions
      At line 304 in file User\Main.s
   Uses
      None
Comment: XSF unused
XSSLLN 000000FB

Symbol: XSSLLN
   Definitions
      At line 313 in file User\Main.s
   Uses
      None
Comment: XSSLLN unused
XSSLSTF 00000064

Symbol: XSSLSTF
   Definitions
      At line 129 in file User\Main.s
   Uses
      None
Comment: XSSLSTF unused
XSSTWDF 0000010E

Symbol: XSSTWDF
   Definitions
      At line 334 in file User\Main.s
   Uses
      None
Comment: XSSTWDF unused
XVL 00000083

Symbol: XVL
   Definitions
      At line 165 in file User\Main.s



ARM Macro Assembler    Page 48 Alphabetic symbol ordering
Relocatable symbols

   Uses
      None
Comment: XVL unused
XVLZFF 00000072

Symbol: XVLZFF
   Definitions
      At line 145 in file User\Main.s
   Uses
      None
Comment: XVLZFF unused
YGMDF 0000010C

Symbol: YGMDF
   Definitions
      At line 332 in file User\Main.s
   Uses
      None
Comment: YGMDF unused
YGONWTF 0000010D

Symbol: YGONWTF
   Definitions
      At line 333 in file User\Main.s
   Uses
      None
Comment: YGONWTF unused
YGSTWD 00000157

Symbol: YGSTWD
   Definitions
      At line 417 in file User\Main.s
   Uses
      None
Comment: YGSTWD unused
YHF 00000107

Symbol: YHF
   Definitions
      At line 326 in file User\Main.s
   Uses
      None
Comment: YHF unused
YHMS 000000FC

Symbol: YHMS
   Definitions
      At line 314 in file User\Main.s
   Uses
      None
Comment: YHMS unused
YHNUM 00000140

Symbol: YHNUM
   Definitions
      At line 391 in file User\Main.s
   Uses
      None
Comment: YHNUM unused



ARM Macro Assembler    Page 49 Alphabetic symbol ordering
Relocatable symbols

YHQF 0000006B

Symbol: YHQF
   Definitions
      At line 137 in file User\Main.s
   Uses
      None
Comment: YHQF unused
YHSEC 00000146

Symbol: YHSEC
   Definitions
      At line 400 in file User\Main.s
   Uses
      None
Comment: YHSEC unused
YHYFKMS 0000005F

Symbol: YHYFKMS
   Definitions
      At line 121 in file User\Main.s
   Uses
      None
Comment: YHYFKMS unused
YVL 000000AD

Symbol: YVL
   Definitions
      At line 218 in file User\Main.s
   Uses
      None
Comment: YVL unused
YVLP 0000014F

Symbol: YVLP
   Definitions
      At line 409 in file User\Main.s
   Uses
      None
Comment: YVLP unused
YXQYL0 000000A1

Symbol: YXQYL0
   Definitions
      At line 205 in file User\Main.s
   Uses
      None
Comment: YXQYL0 unused
YZFF 00000073

Symbol: YZFF
   Definitions
      At line 146 in file User\Main.s
   Uses
      None
Comment: YZFF unused
ZFFKDDPMS 00000021

Symbol: ZFFKDDPMS



ARM Macro Assembler    Page 50 Alphabetic symbol ordering
Relocatable symbols

   Definitions
      At line 46 in file User\Main.s
   Uses
      None
Comment: ZFFKDDPMS unused
ZFFKGDPMS 00000020

Symbol: ZFFKGDPMS
   Definitions
      At line 45 in file User\Main.s
   Uses
      None
Comment: ZFFKGDPMS unused
ZJMS 00000007

Symbol: ZJMS
   Definitions
      At line 17 in file User\Main.s
   Uses
      None
Comment: ZJMS unused
ZJYHF 0000003B

Symbol: ZJYHF
   Definitions
      At line 78 in file User\Main.s
   Uses
      None
Comment: ZJYHF unused
ZSF 000000F3

Symbol: ZSF
   Definitions
      At line 305 in file User\Main.s
   Uses
      None
Comment: ZSF unused
ZXHNUM 000000B9

Symbol: ZXHNUM
   Definitions
      At line 231 in file User\Main.s
   Uses
      None
Comment: ZXHNUM unused
ZYXQF 00000045

Symbol: ZYXQF
   Definitions
      At line 90 in file User\Main.s
   Uses
      None
Comment: ZYXQF unused
nHalfSecond 000000EE

Symbol: nHalfSecond
   Definitions
      At line 299 in file User\Main.s
   Uses



ARM Macro Assembler    Page 51 Alphabetic symbol ordering
Relocatable symbols

      None
Comment: nHalfSecond unused
nOneSecond 000000EC

Symbol: nOneSecond
   Definitions
      At line 297 in file User\Main.s
   Uses
      None
Comment: nOneSecond unused
nTwoSecond 000000ED

Symbol: nTwoSecond
   Definitions
      At line 298 in file User\Main.s
   Uses
      None
Comment: nTwoSecond unused
371 symbols



ARM Macro Assembler    Page 1 Alphabetic symbol ordering
Relocatable symbols

.text 00000000

Symbol: .text
   Definitions
      At line 453 in file User\Main.s
   Uses
      None
Comment: .text unused
LedOutputCfg 00000368

Symbol: LedOutputCfg
   Definitions
      At line 1051 in file User\Main.s
   Uses
      At line 461 in file User\Main.s
Comment: LedOutputCfg used once
MCUInit 000000CA

Symbol: MCUInit
   Definitions
      At line 608 in file User\Main.s
   Uses
      At line 460 in file User\Main.s
Comment: MCUInit used once
Main 00000000

Symbol: Main
   Definitions
      At line 457 in file User\Main.s
   Uses
      At line 456 in file User\Main.s
Comment: Main used once
Main_inner_loop1 00000020

Symbol: Main_inner_loop1
   Definitions
      At line 473 in file User\Main.s
   Uses
      At line 480 in file User\Main.s
Comment: Main_inner_loop1 used once
Main_inner_loop2 00000020

Symbol: Main_inner_loop2
   Definitions
      At line 474 in file User\Main.s
   Uses
      At line 478 in file User\Main.s
Comment: Main_inner_loop2 used once
Main_loop 0000001E

Symbol: Main_loop
   Definitions
      At line 471 in file User\Main.s
   Uses
      At line 488 in file User\Main.s
Comment: Main_loop used once
SYSInit 00000038

Symbol: SYSInit



ARM Macro Assembler    Page 2 Alphabetic symbol ordering
Relocatable symbols

   Definitions
      At line 493 in file User\Main.s
   Uses
      At line 459 in file User\Main.s
Comment: SYSInit used once
UnLockRegister 000000B0

Symbol: UnLockRegister
   Definitions
      At line 581 in file User\Main.s
   Uses
      At line 458 in file User\Main.s
Comment: UnLockRegister used once
9 symbols



ARM Macro Assembler    Page 1 Alphabetic symbol ordering
Absolute symbols

ACMP_BA 400D0000

Symbol: ACMP_BA
   Definitions
      At line 30 in file User\NUC029xx.hs
   Uses
      None
Comment: ACMP_BA unused
ADCHER 00000024

Symbol: ADCHER
   Definitions
      At line 391 in file User\NUC029xx.hs
   Uses
      None
Comment: ADCHER unused
ADCMPR0 00000028

Symbol: ADCMPR0
   Definitions
      At line 392 in file User\NUC029xx.hs
   Uses
      None
Comment: ADCMPR0 unused
ADCMPR1 0000002C

Symbol: ADCMPR1
   Definitions
      At line 393 in file User\NUC029xx.hs
   Uses
      None
Comment: ADCMPR1 unused
ADCR 00000020

Symbol: ADCR
   Definitions
      At line 390 in file User\NUC029xx.hs
   Uses
      None
Comment: ADCR unused
ADC_BA 400E0000

Symbol: ADC_BA
   Definitions
      At line 31 in file User\NUC029xx.hs
   Uses
      At line 746 in file User\Main.s
      At line 757 in file User\Main.s

ADDR0 00000000

Symbol: ADDR0
   Definitions
      At line 382 in file User\NUC029xx.hs
   Uses
      None
Comment: ADDR0 unused
ADDR1 00000004




ARM Macro Assembler    Page 2 Alphabetic symbol ordering
Absolute symbols

Symbol: ADDR1
   Definitions
      At line 383 in file User\NUC029xx.hs
   Uses
      None
Comment: ADDR1 unused
ADDR2 00000008

Symbol: ADDR2
   Definitions
      At line 384 in file User\NUC029xx.hs
   Uses
      None
Comment: ADDR2 unused
ADDR3 0000000C

Symbol: ADDR3
   Definitions
      At line 385 in file User\NUC029xx.hs
   Uses
      None
Comment: ADDR3 unused
ADDR4 00000010

Symbol: ADDR4
   Definitions
      At line 386 in file User\NUC029xx.hs
   Uses
      None
Comment: ADDR4 unused
ADDR5 00000014

Symbol: ADDR5
   Definitions
      At line 387 in file User\NUC029xx.hs
   Uses
      None
Comment: ADDR5 unused
ADDR6 00000018

Symbol: ADDR6
   Definitions
      At line 388 in file User\NUC029xx.hs
   Uses
      None
Comment: ADDR6 unused
ADDR7 0000001C

Symbol: ADDR7
   Definitions
      At line 389 in file User\NUC029xx.hs
   Uses
      None
Comment: ADDR7 unused
ADSR 00000030

Symbol: ADSR
   Definitions
      At line 394 in file User\NUC029xx.hs



ARM Macro Assembler    Page 3 Alphabetic symbol ordering
Absolute symbols

   Uses
      None
Comment: ADSR unused
AHBCLK 00000004

Symbol: AHBCLK
   Definitions
      At line 141 in file User\NUC029xx.hs
   Uses
      None
Comment: AHBCLK unused
AIRCR 0000000C

Symbol: AIRCR
   Definitions
      At line 133 in file User\NUC029xx.hs
   Uses
      None
Comment: AIRCR unused
APBCLK 00000008

Symbol: APBCLK
   Definitions
      At line 142 in file User\NUC029xx.hs
   Uses
      None
Comment: APBCLK unused
BODCR 00000018

Symbol: BODCR
   Definitions
      At line 57 in file User\NUC029xx.hs
   Uses
      None
Comment: BODCR unused
CAPENR 00000078

Symbol: CAPENR
   Definitions
      At line 310 in file User\NUC029xx.hs
   Uses
      None
Comment: CAPENR unused
CCR0 00000050

Symbol: CCR0
   Definitions
      At line 295 in file User\NUC029xx.hs
   Uses
      None
Comment: CCR0 unused
CCR2 00000054

Symbol: CCR2
   Definitions
      At line 296 in file User\NUC029xx.hs
   Uses
      None
Comment: CCR2 unused



ARM Macro Assembler    Page 4 Alphabetic symbol ordering
Absolute symbols

CFLR0 0000005C

Symbol: CFLR0
   Definitions
      At line 299 in file User\NUC029xx.hs
   Uses
      None
Comment: CFLR0 unused
CFLR1 00000064

Symbol: CFLR1
   Definitions
      At line 302 in file User\NUC029xx.hs
   Uses
      None
Comment: CFLR1 unused
CFLR2 0000006C

Symbol: CFLR2
   Definitions
      At line 305 in file User\NUC029xx.hs
   Uses
      None
Comment: CFLR2 unused
CFLR3 00000074

Symbol: CFLR3
   Definitions
      At line 308 in file User\NUC029xx.hs
   Uses
      None
Comment: CFLR3 unused
CLKDIV 00000018

Symbol: CLKDIV
   Definitions
      At line 146 in file User\NUC029xx.hs
   Uses
      None
Comment: CLKDIV unused
CLKSEL0 00000010

Symbol: CLKSEL0
   Definitions
      At line 144 in file User\NUC029xx.hs
   Uses
      None
Comment: CLKSEL0 unused
CLKSEL1 00000014

Symbol: CLKSEL1
   Definitions
      At line 145 in file User\NUC029xx.hs
   Uses
      None
Comment: CLKSEL1 unused
CLKSEL2 0000001C

Symbol: CLKSEL2



ARM Macro Assembler    Page 5 Alphabetic symbol ordering
Absolute symbols

   Definitions
      At line 147 in file User\NUC029xx.hs
   Uses
      None
Comment: CLKSEL2 unused
CLKSTATUS 0000000C

Symbol: CLKSTATUS
   Definitions
      At line 143 in file User\NUC029xx.hs
   Uses
      None
Comment: CLKSTATUS unused
CLK_BA 50000200

Symbol: CLK_BA
   Definitions
      At line 41 in file User\NUC029xx.hs
   Uses
      At line 496 in file User\Main.s
      At line 690 in file User\Main.s
      At line 694 in file User\Main.s
      At line 700 in file User\Main.s
      At line 736 in file User\Main.s
      At line 742 in file User\Main.s
      At line 825 in file User\Main.s
      At line 829 in file User\Main.s
      At line 835 in file User\Main.s
      At line 875 in file User\Main.s
      At line 880 in file User\Main.s
      At line 886 in file User\Main.s
      At line 936 in file User\Main.s
      At line 941 in file User\Main.s
      At line 947 in file User\Main.s
      At line 990 in file User\Main.s
      At line 995 in file User\Main.s
      At line 1001 in file User\Main.s

CMP0CR 00000000

Symbol: CMP0CR
   Definitions
      At line 398 in file User\NUC029xx.hs
   Uses
      None
Comment: CMP0CR unused
CMP1CR 00000004

Symbol: CMP1CR
   Definitions
      At line 399 in file User\NUC029xx.hs
   Uses
      None
Comment: CMP1CR unused
CMPSR 00000008

Symbol: CMPSR
   Definitions
      At line 400 in file User\NUC029xx.hs



ARM Macro Assembler    Page 6 Alphabetic symbol ordering
Absolute symbols

   Uses
      None
Comment: CMPSR unused
CMR0 00000010

Symbol: CMR0
   Definitions
      At line 277 in file User\NUC029xx.hs
   Uses
      None
Comment: CMR0 unused
CMR1 0000001C

Symbol: CMR1
   Definitions
      At line 281 in file User\NUC029xx.hs
   Uses
      None
Comment: CMR1 unused
CMR2 00000028

Symbol: CMR2
   Definitions
      At line 285 in file User\NUC029xx.hs
   Uses
      None
Comment: CMR2 unused
CMR3 00000034

Symbol: CMR3
   Definitions
      At line 289 in file User\NUC029xx.hs
   Uses
      None
Comment: CMR3 unused
CNR0 0000000C

Symbol: CNR0
   Definitions
      At line 276 in file User\NUC029xx.hs
   Uses
      None
Comment: CNR0 unused
CNR1 00000018

Symbol: CNR1
   Definitions
      At line 280 in file User\NUC029xx.hs
   Uses
      None
Comment: CNR1 unused
CNR2 00000024

Symbol: CNR2
   Definitions
      At line 284 in file User\NUC029xx.hs
   Uses
      None
Comment: CNR2 unused



ARM Macro Assembler    Page 7 Alphabetic symbol ordering
Absolute symbols

CNR3 00000030

Symbol: CNR3
   Definitions
      At line 288 in file User\NUC029xx.hs
   Uses
      None
Comment: CNR3 unused
CPUID 00000000

Symbol: CPUID
   Definitions
      At line 131 in file User\NUC029xx.hs
   Uses
      None
Comment: CPUID unused
CRLR0 00000058

Symbol: CRLR0
   Definitions
      At line 298 in file User\NUC029xx.hs
   Uses
      None
Comment: CRLR0 unused
CRLR1 00000060

Symbol: CRLR1
   Definitions
      At line 301 in file User\NUC029xx.hs
   Uses
      None
Comment: CRLR1 unused
CRLR2 00000068

Symbol: CRLR2
   Definitions
      At line 304 in file User\NUC029xx.hs
   Uses
      None
Comment: CRLR2 unused
CRLR3 00000070

Symbol: CRLR3
   Definitions
      At line 307 in file User\NUC029xx.hs
   Uses
      None
Comment: CRLR3 unused
CSR 00000004

Symbol: CSR
   Definitions
      At line 273 in file User\NUC029xx.hs
   Uses
      None
Comment: CSR unused
DBNCECON 00000180

Symbol: DBNCECON



ARM Macro Assembler    Page 8 Alphabetic symbol ordering
Absolute symbols

   Definitions
      At line 205 in file User\NUC029xx.hs
   Uses
      None
Comment: DBNCECON unused
DFBADR 00000014

Symbol: DFBADR
   Definitions
      At line 414 in file User\NUC029xx.hs
   Uses
      None
Comment: DFBADR unused
EBICON 00000000

Symbol: EBICON
   Definitions
      At line 404 in file User\NUC029xx.hs
   Uses
      None
Comment: EBICON unused
EBI_BA 60000000

Symbol: EBI_BA
   Definitions
      At line 18 in file User\NUC029xx.hs
   Uses
      None
Comment: EBI_BA unused
EBI_CTL_BA 50010000

Symbol: EBI_CTL_BA
   Definitions
      At line 45 in file User\NUC029xx.hs
   Uses
      None
Comment: EBI_CTL_BA unused
EXTIME 00000004

Symbol: EXTIME
   Definitions
      At line 405 in file User\NUC029xx.hs
   Uses
      None
Comment: EXTIME unused
FATCON 00000018

Symbol: FATCON
   Definitions
      At line 415 in file User\NUC029xx.hs
   Uses
      None
Comment: FATCON unused
FLASH_BA 00000000

Symbol: FLASH_BA
   Definitions
      At line 4 in file User\NUC029xx.hs
   Uses



ARM Macro Assembler    Page 9 Alphabetic symbol ordering
Absolute symbols

      None
Comment: FLASH_BA unused
FMC_BA 5000C000

Symbol: FMC_BA
   Definitions
      At line 44 in file User\NUC029xx.hs
   Uses
      At line 803 in file User\Main.s
Comment: FMC_BA used once
FRQDIV 00000024

Symbol: FRQDIV
   Definitions
      At line 149 in file User\NUC029xx.hs
   Uses
      None
Comment: FRQDIV unused
GCR_BA 50000000

Symbol: GCR_BA
   Definitions
      At line 40 in file User\NUC029xx.hs
   Uses
      At line 1031 in file User\Main.s
      At line 1053 in file User\Main.s

GPIO_BA 50004000

Symbol: GPIO_BA
   Definitions
      At line 43 in file User\NUC029xx.hs
   Uses
      At line 482 in file User\Main.s
      At line 612 in file User\Main.s
      At line 761 in file User\Main.s
      At line 1070 in file User\Main.s
      At line 1075 in file User\Main.s

I2CADDR1 00000018

Symbol: I2CADDR1
   Definitions
      At line 261 in file User\NUC029xx.hs
   Uses
      None
Comment: I2CADDR1 unused
I2CADDR2 0000001C

Symbol: I2CADDR2
   Definitions
      At line 262 in file User\NUC029xx.hs
   Uses
      None
Comment: I2CADDR2 unused
I2CADDR3 00000020

Symbol: I2CADDR3
   Definitions



ARM Macro Assembler    Page 10 Alphabetic symbol ordering
Absolute symbols

      At line 263 in file User\NUC029xx.hs
   Uses
      None
Comment: I2CADDR3 unused
I2CADM0 00000024

Symbol: I2CADM0
   Definitions
      At line 264 in file User\NUC029xx.hs
   Uses
      None
Comment: I2CADM0 unused
I2CADM1 00000028

Symbol: I2CADM1
   Definitions
      At line 265 in file User\NUC029xx.hs
   Uses
      None
Comment: I2CADM1 unused
I2CADM2 0000002C

Symbol: I2CADM2
   Definitions
      At line 266 in file User\NUC029xx.hs
   Uses
      None
Comment: I2CADM2 unused
I2CADM3 00000030

Symbol: I2CADM3
   Definitions
      At line 267 in file User\NUC029xx.hs
   Uses
      None
Comment: I2CADM3 unused
I2CADRR0 00000004

Symbol: I2CADRR0
   Definitions
      At line 256 in file User\NUC029xx.hs
   Uses
      None
Comment: I2CADRR0 unused
I2CDAT 00000008

Symbol: I2CDAT
   Definitions
      At line 257 in file User\NUC029xx.hs
   Uses
      None
Comment: I2CDAT unused
I2CLK 00000010

Symbol: I2CLK
   Definitions
      At line 259 in file User\NUC029xx.hs
   Uses
      None



ARM Macro Assembler    Page 11 Alphabetic symbol ordering
Absolute symbols

Comment: I2CLK unused
I2CON 00000000

Symbol: I2CON
   Definitions
      At line 255 in file User\NUC029xx.hs
   Uses
      None
Comment: I2CON unused
I2CSTATUS 0000000C

Symbol: I2CSTATUS
   Definitions
      At line 258 in file User\NUC029xx.hs
   Uses
      None
Comment: I2CSTATUS unused
I2CTOC 00000014

Symbol: I2CTOC
   Definitions
      At line 260 in file User\NUC029xx.hs
   Uses
      None
Comment: I2CTOC unused
I2C_BA 40020000

Symbol: I2C_BA
   Definitions
      At line 25 in file User\NUC029xx.hs
   Uses
      None
Comment: I2C_BA unused
ICSR 00000004

Symbol: ICSR
   Definitions
      At line 132 in file User\NUC029xx.hs
   Uses
      None
Comment: ICSR unused
INT_BA 50000300

Symbol: INT_BA
   Definitions
      At line 42 in file User\NUC029xx.hs
   Uses
      None
Comment: INT_BA unused
IPRSTC1 00000008

Symbol: IPRSTC1
   Definitions
      At line 55 in file User\NUC029xx.hs
   Uses
      None
Comment: IPRSTC1 unused
IPRSTC2 0000000C




ARM Macro Assembler    Page 12 Alphabetic symbol ordering
Absolute symbols

Symbol: IPRSTC2
   Definitions
      At line 56 in file User\NUC029xx.hs
   Uses
      None
Comment: IPRSTC2 unused
IRQ0_SRC 00000000

Symbol: IRQ0_SRC
   Definitions
      At line 92 in file User\NUC029xx.hs
   Uses
      None
Comment: IRQ0_SRC unused
IRQ10_SRC 00000028

Symbol: IRQ10_SRC
   Definitions
      At line 102 in file User\NUC029xx.hs
   Uses
      None
Comment: IRQ10_SRC unused
IRQ11_SRC 0000002C

Symbol: IRQ11_SRC
   Definitions
      At line 103 in file User\NUC029xx.hs
   Uses
      None
Comment: IRQ11_SRC unused
IRQ12_SRC 00000030

Symbol: IRQ12_SRC
   Definitions
      At line 104 in file User\NUC029xx.hs
   Uses
      None
Comment: IRQ12_SRC unused
IRQ13_SRC 00000034

Symbol: IRQ13_SRC
   Definitions
      At line 105 in file User\NUC029xx.hs
   Uses
      None
Comment: IRQ13_SRC unused
IRQ14_SRC 00000038

Symbol: IRQ14_SRC
   Definitions
      At line 106 in file User\NUC029xx.hs
   Uses
      None
Comment: IRQ14_SRC unused
IRQ15_SRC 0000003C

Symbol: IRQ15_SRC
   Definitions
      At line 107 in file User\NUC029xx.hs



ARM Macro Assembler    Page 13 Alphabetic symbol ordering
Absolute symbols

   Uses
      None
Comment: IRQ15_SRC unused
IRQ16_SRC 00000040

Symbol: IRQ16_SRC
   Definitions
      At line 108 in file User\NUC029xx.hs
   Uses
      None
Comment: IRQ16_SRC unused
IRQ17_SRC 00000044

Symbol: IRQ17_SRC
   Definitions
      At line 109 in file User\NUC029xx.hs
   Uses
      None
Comment: IRQ17_SRC unused
IRQ18_SRC 00000048

Symbol: IRQ18_SRC
   Definitions
      At line 110 in file User\NUC029xx.hs
   Uses
      None
Comment: IRQ18_SRC unused
IRQ19_SRC 0000004C

Symbol: IRQ19_SRC
   Definitions
      At line 111 in file User\NUC029xx.hs
   Uses
      None
Comment: IRQ19_SRC unused
IRQ1_SRC 00000004

Symbol: IRQ1_SRC
   Definitions
      At line 93 in file User\NUC029xx.hs
   Uses
      None
Comment: IRQ1_SRC unused
IRQ20_SRC 00000050

Symbol: IRQ20_SRC
   Definitions
      At line 112 in file User\NUC029xx.hs
   Uses
      None
Comment: IRQ20_SRC unused
IRQ21_SRC 00000054

Symbol: IRQ21_SRC
   Definitions
      At line 113 in file User\NUC029xx.hs
   Uses
      None
Comment: IRQ21_SRC unused



ARM Macro Assembler    Page 14 Alphabetic symbol ordering
Absolute symbols

IRQ22_SRC 00000058

Symbol: IRQ22_SRC
   Definitions
      At line 114 in file User\NUC029xx.hs
   Uses
      None
Comment: IRQ22_SRC unused
IRQ23_SRC 0000005C

Symbol: IRQ23_SRC
   Definitions
      At line 115 in file User\NUC029xx.hs
   Uses
      None
Comment: IRQ23_SRC unused
IRQ24_SRC 00000060

Symbol: IRQ24_SRC
   Definitions
      At line 116 in file User\NUC029xx.hs
   Uses
      None
Comment: IRQ24_SRC unused
IRQ25_SRC 00000064

Symbol: IRQ25_SRC
   Definitions
      At line 117 in file User\NUC029xx.hs
   Uses
      None
Comment: IRQ25_SRC unused
IRQ26_SRC 00000068

Symbol: IRQ26_SRC
   Definitions
      At line 118 in file User\NUC029xx.hs
   Uses
      None
Comment: IRQ26_SRC unused
IRQ27_SRC 0000006C

Symbol: IRQ27_SRC
   Definitions
      At line 119 in file User\NUC029xx.hs
   Uses
      None
Comment: IRQ27_SRC unused
IRQ28_SRC 00000070

Symbol: IRQ28_SRC
   Definitions
      At line 120 in file User\NUC029xx.hs
   Uses
      None
Comment: IRQ28_SRC unused
IRQ29_SRC 00000074

Symbol: IRQ29_SRC



ARM Macro Assembler    Page 15 Alphabetic symbol ordering
Absolute symbols

   Definitions
      At line 121 in file User\NUC029xx.hs
   Uses
      None
Comment: IRQ29_SRC unused
IRQ2_SRC 00000008

Symbol: IRQ2_SRC
   Definitions
      At line 94 in file User\NUC029xx.hs
   Uses
      None
Comment: IRQ2_SRC unused
IRQ30_SRC 00000078

Symbol: IRQ30_SRC
   Definitions
      At line 122 in file User\NUC029xx.hs
   Uses
      None
Comment: IRQ30_SRC unused
IRQ31_SRC 0000007C

Symbol: IRQ31_SRC
   Definitions
      At line 123 in file User\NUC029xx.hs
   Uses
      None
Comment: IRQ31_SRC unused
IRQ3_SRC 0000000C

Symbol: IRQ3_SRC
   Definitions
      At line 95 in file User\NUC029xx.hs
   Uses
      None
Comment: IRQ3_SRC unused
IRQ4_SRC 00000010

Symbol: IRQ4_SRC
   Definitions
      At line 96 in file User\NUC029xx.hs
   Uses
      None
Comment: IRQ4_SRC unused
IRQ5_SRC 00000014

Symbol: IRQ5_SRC
   Definitions
      At line 97 in file User\NUC029xx.hs
   Uses
      None
Comment: IRQ5_SRC unused
IRQ6_SRC 00000018

Symbol: IRQ6_SRC
   Definitions
      At line 98 in file User\NUC029xx.hs
   Uses



ARM Macro Assembler    Page 16 Alphabetic symbol ordering
Absolute symbols

      None
Comment: IRQ6_SRC unused
IRQ7_SRC 0000001C

Symbol: IRQ7_SRC
   Definitions
      At line 99 in file User\NUC029xx.hs
   Uses
      None
Comment: IRQ7_SRC unused
IRQ8_SRC 00000020

Symbol: IRQ8_SRC
   Definitions
      At line 100 in file User\NUC029xx.hs
   Uses
      None
Comment: IRQ8_SRC unused
IRQ9_SRC 00000024

Symbol: IRQ9_SRC
   Definitions
      At line 101 in file User\NUC029xx.hs
   Uses
      None
Comment: IRQ9_SRC unused
ISPADR 00000004

Symbol: ISPADR
   Definitions
      At line 410 in file User\NUC029xx.hs
   Uses
      None
Comment: ISPADR unused
ISPCMD 0000000C

Symbol: ISPCMD
   Definitions
      At line 412 in file User\NUC029xx.hs
   Uses
      None
Comment: ISPCMD unused
ISPCON 00000000

Symbol: ISPCON
   Definitions
      At line 409 in file User\NUC029xx.hs
   Uses
      None
Comment: ISPCON unused
ISPDAT 00000008

Symbol: ISPDAT
   Definitions
      At line 411 in file User\NUC029xx.hs
   Uses
      None
Comment: ISPDAT unused
ISPTRG 00000010



ARM Macro Assembler    Page 17 Alphabetic symbol ordering
Absolute symbols


Symbol: ISPTRG
   Definitions
      At line 413 in file User\NUC029xx.hs
   Uses
      None
Comment: ISPTRG unused
MCU_IRQ 00000084

Symbol: MCU_IRQ
   Definitions
      At line 125 in file User\NUC029xx.hs
   Uses
      None
Comment: MCU_IRQ unused
NMI_SEL 00000080

Symbol: NMI_SEL
   Definitions
      At line 124 in file User\NUC029xx.hs
   Uses
      None
Comment: NMI_SEL unused
NVIC_BA E000E100

Symbol: NVIC_BA
   Definitions
      At line 11 in file User\NUC029xx.hs
   Uses
      At line 723 in file User\Main.s
      At line 779 in file User\Main.s

NVIC_ICER 00000080

Symbol: NVIC_ICER
   Definitions
      At line 78 in file User\NUC029xx.hs
   Uses
      None
Comment: NVIC_ICER unused
NVIC_ICPR 00000180

Symbol: NVIC_ICPR
   Definitions
      At line 80 in file User\NUC029xx.hs
   Uses
      None
Comment: NVIC_ICPR unused
NVIC_IPR0 00000300

Symbol: NVIC_IPR0
   Definitions
      At line 81 in file User\NUC029xx.hs
   Uses
      None
Comment: NVIC_IPR0 unused
NVIC_IPR1 00000304

Symbol: NVIC_IPR1



ARM Macro Assembler    Page 18 Alphabetic symbol ordering
Absolute symbols

   Definitions
      At line 82 in file User\NUC029xx.hs
   Uses
      None
Comment: NVIC_IPR1 unused
NVIC_IPR2 00000308

Symbol: NVIC_IPR2
   Definitions
      At line 83 in file User\NUC029xx.hs
   Uses
      None
Comment: NVIC_IPR2 unused
NVIC_IPR3 0000030C

Symbol: NVIC_IPR3
   Definitions
      At line 84 in file User\NUC029xx.hs
   Uses
      None
Comment: NVIC_IPR3 unused
NVIC_IPR4 00000310

Symbol: NVIC_IPR4
   Definitions
      At line 85 in file User\NUC029xx.hs
   Uses
      None
Comment: NVIC_IPR4 unused
NVIC_IPR5 00000314

Symbol: NVIC_IPR5
   Definitions
      At line 86 in file User\NUC029xx.hs
   Uses
      None
Comment: NVIC_IPR5 unused
NVIC_IPR6 00000318

Symbol: NVIC_IPR6
   Definitions
      At line 87 in file User\NUC029xx.hs
   Uses
      None
Comment: NVIC_IPR6 unused
NVIC_IPR7 0000031C

Symbol: NVIC_IPR7
   Definitions
      At line 88 in file User\NUC029xx.hs
   Uses
      None
Comment: NVIC_IPR7 unused
NVIC_ISER 00000000

Symbol: NVIC_ISER
   Definitions
      At line 77 in file User\NUC029xx.hs
   Uses



ARM Macro Assembler    Page 19 Alphabetic symbol ordering
Absolute symbols

      None
Comment: NVIC_ISER unused
NVIC_ISPR 00000100

Symbol: NVIC_ISPR
   Definitions
      At line 79 in file User\NUC029xx.hs
   Uses
      None
Comment: NVIC_ISPR unused
P00_DOUT 00000200

Symbol: P00_DOUT
   Definitions
      At line 207 in file User\NUC029xx.hs
   Uses
      None
Comment: P00_DOUT unused
P01_DOUT 00000204

Symbol: P01_DOUT
   Definitions
      At line 208 in file User\NUC029xx.hs
   Uses
      None
Comment: P01_DOUT unused
P02_DOUT 00000208

Symbol: P02_DOUT
   Definitions
      At line 209 in file User\NUC029xx.hs
   Uses
      None
Comment: P02_DOUT unused
P03_DOUT 0000020C

Symbol: P03_DOUT
   Definitions
      At line 210 in file User\NUC029xx.hs
   Uses
      None
Comment: P03_DOUT unused
P04_DOUT 00000210

Symbol: P04_DOUT
   Definitions
      At line 211 in file User\NUC029xx.hs
   Uses
      None
Comment: P04_DOUT unused
P05_DOUT 00000214

Symbol: P05_DOUT
   Definitions
      At line 212 in file User\NUC029xx.hs
   Uses
      None
Comment: P05_DOUT unused
P06_DOUT 00000218



ARM Macro Assembler    Page 20 Alphabetic symbol ordering
Absolute symbols


Symbol: P06_DOUT
   Definitions
      At line 213 in file User\NUC029xx.hs
   Uses
      None
Comment: P06_DOUT unused
P07_DOUT 0000021C

Symbol: P07_DOUT
   Definitions
      At line 214 in file User\NUC029xx.hs
   Uses
      At line 483 in file User\Main.s
      At line 1076 in file User\Main.s

P0_DBEN 00000014

Symbol: P0_DBEN
   Definitions
      At line 160 in file User\NUC029xx.hs
   Uses
      None
Comment: P0_DBEN unused
P0_DMASK 0000000C

Symbol: P0_DMASK
   Definitions
      At line 158 in file User\NUC029xx.hs
   Uses
      None
Comment: P0_DMASK unused
P0_DOUT 00000008

Symbol: P0_DOUT
   Definitions
      At line 157 in file User\NUC029xx.hs
   Uses
      At line 1071 in file User\Main.s
      At line 1073 in file User\Main.s

P0_IEN 0000001C

Symbol: P0_IEN
   Definitions
      At line 162 in file User\NUC029xx.hs
   Uses
      None
Comment: P0_IEN unused
P0_IMD 00000018

Symbol: P0_IMD
   Definitions
      At line 161 in file User\NUC029xx.hs
   Uses
      None
Comment: P0_IMD unused
P0_ISRC 00000020




ARM Macro Assembler    Page 21 Alphabetic symbol ordering
Absolute symbols

Symbol: P0_ISRC
   Definitions
      At line 163 in file User\NUC029xx.hs
   Uses
      None
Comment: P0_ISRC unused
P0_MFP 00000030

Symbol: P0_MFP
   Definitions
      At line 60 in file User\NUC029xx.hs
   Uses
      None
Comment: P0_MFP unused
P0_OFFD 00000004

Symbol: P0_OFFD
   Definitions
      At line 156 in file User\NUC029xx.hs
   Uses
      None
Comment: P0_OFFD unused
P0_PIN 00000010

Symbol: P0_PIN
   Definitions
      At line 159 in file User\NUC029xx.hs
   Uses
      None
Comment: P0_PIN unused
P0_PMD 00000000

Symbol: P0_PMD
   Definitions
      At line 155 in file User\NUC029xx.hs
   Uses
      None
Comment: P0_PMD unused
P10_DOUT 00000220

Symbol: P10_DOUT
   Definitions
      At line 216 in file User\NUC029xx.hs
   Uses
      None
Comment: P10_DOUT unused
P11_DOUT 00000224

Symbol: P11_DOUT
   Definitions
      At line 217 in file User\NUC029xx.hs
   Uses
      None
Comment: P11_DOUT unused
P12_DOUT 00000228

Symbol: P12_DOUT
   Definitions
      At line 218 in file User\NUC029xx.hs



ARM Macro Assembler    Page 22 Alphabetic symbol ordering
Absolute symbols

   Uses
      None
Comment: P12_DOUT unused
P13_DOUT 0000022C

Symbol: P13_DOUT
   Definitions
      At line 219 in file User\NUC029xx.hs
   Uses
      None
Comment: P13_DOUT unused
P14_DOUT 00000230

Symbol: P14_DOUT
   Definitions
      At line 220 in file User\NUC029xx.hs
   Uses
      None
Comment: P14_DOUT unused
P15_DOUT 00000234

Symbol: P15_DOUT
   Definitions
      At line 221 in file User\NUC029xx.hs
   Uses
      None
Comment: P15_DOUT unused
P16_DOUT 00000238

Symbol: P16_DOUT
   Definitions
      At line 222 in file User\NUC029xx.hs
   Uses
      None
Comment: P16_DOUT unused
P17_DOUT 0000023C

Symbol: P17_DOUT
   Definitions
      At line 223 in file User\NUC029xx.hs
   Uses
      None
Comment: P17_DOUT unused
P1_DBEN 00000054

Symbol: P1_DBEN
   Definitions
      At line 170 in file User\NUC029xx.hs
   Uses
      None
Comment: P1_DBEN unused
P1_DMASK 0000004C

Symbol: P1_DMASK
   Definitions
      At line 168 in file User\NUC029xx.hs
   Uses
      None
Comment: P1_DMASK unused



ARM Macro Assembler    Page 23 Alphabetic symbol ordering
Absolute symbols

P1_DOUT 00000048

Symbol: P1_DOUT
   Definitions
      At line 167 in file User\NUC029xx.hs
   Uses
      None
Comment: P1_DOUT unused
P1_IEN 0000005C

Symbol: P1_IEN
   Definitions
      At line 172 in file User\NUC029xx.hs
   Uses
      None
Comment: P1_IEN unused
P1_IMD 00000058

Symbol: P1_IMD
   Definitions
      At line 171 in file User\NUC029xx.hs
   Uses
      None
Comment: P1_IMD unused
P1_ISRC 00000060

Symbol: P1_ISRC
   Definitions
      At line 173 in file User\NUC029xx.hs
   Uses
      None
Comment: P1_ISRC unused
P1_MFP 00000034

Symbol: P1_MFP
   Definitions
      At line 61 in file User\NUC029xx.hs
   Uses
      None
Comment: P1_MFP unused
P1_OFFD 00000044

Symbol: P1_OFFD
   Definitions
      At line 166 in file User\NUC029xx.hs
   Uses
      None
Comment: P1_OFFD unused
P1_PIN 00000050

Symbol: P1_PIN
   Definitions
      At line 169 in file User\NUC029xx.hs
   Uses
      None
Comment: P1_PIN unused
P1_PMD 00000040

Symbol: P1_PMD



ARM Macro Assembler    Page 24 Alphabetic symbol ordering
Absolute symbols

   Definitions
      At line 165 in file User\NUC029xx.hs
   Uses
      None
Comment: P1_PMD unused
P20_DOUT 00000240

Symbol: P20_DOUT
   Definitions
      At line 225 in file User\NUC029xx.hs
   Uses
      None
Comment: P20_DOUT unused
P21_DOUT 00000244

Symbol: P21_DOUT
   Definitions
      At line 226 in file User\NUC029xx.hs
   Uses
      None
Comment: P21_DOUT unused
P22_DOUT 00000248

Symbol: P22_DOUT
   Definitions
      At line 227 in file User\NUC029xx.hs
   Uses
      None
Comment: P22_DOUT unused
P23_DOUT 0000024C

Symbol: P23_DOUT
   Definitions
      At line 228 in file User\NUC029xx.hs
   Uses
      None
Comment: P23_DOUT unused
P24_DOUT 00000250

Symbol: P24_DOUT
   Definitions
      At line 229 in file User\NUC029xx.hs
   Uses
      None
Comment: P24_DOUT unused
P25_DOUT 00000254

Symbol: P25_DOUT
   Definitions
      At line 230 in file User\NUC029xx.hs
   Uses
      None
Comment: P25_DOUT unused
P26_DOUT 00000258

Symbol: P26_DOUT
   Definitions
      At line 231 in file User\NUC029xx.hs
   Uses



ARM Macro Assembler    Page 25 Alphabetic symbol ordering
Absolute symbols

      None
Comment: P26_DOUT unused
P27_DOUT 0000025C

Symbol: P27_DOUT
   Definitions
      At line 232 in file User\NUC029xx.hs
   Uses
      None
Comment: P27_DOUT unused
P2_DBEN 00000094

Symbol: P2_DBEN
   Definitions
      At line 180 in file User\NUC029xx.hs
   Uses
      None
Comment: P2_DBEN unused
P2_DMASK 0000008C

Symbol: P2_DMASK
   Definitions
      At line 178 in file User\NUC029xx.hs
   Uses
      None
Comment: P2_DMASK unused
P2_DOUT 00000088

Symbol: P2_DOUT
   Definitions
      At line 177 in file User\NUC029xx.hs
   Uses
      None
Comment: P2_DOUT unused
P2_IEN 0000009C

Symbol: P2_IEN
   Definitions
      At line 182 in file User\NUC029xx.hs
   Uses
      None
Comment: P2_IEN unused
P2_IMD 00000098

Symbol: P2_IMD
   Definitions
      At line 181 in file User\NUC029xx.hs
   Uses
      None
Comment: P2_IMD unused
P2_ISRC 000000A0

Symbol: P2_ISRC
   Definitions
      At line 183 in file User\NUC029xx.hs
   Uses
      None
Comment: P2_ISRC unused
P2_MFP 00000038



ARM Macro Assembler    Page 26 Alphabetic symbol ordering
Absolute symbols


Symbol: P2_MFP
   Definitions
      At line 62 in file User\NUC029xx.hs
   Uses
      None
Comment: P2_MFP unused
P2_OFFD 00000084

Symbol: P2_OFFD
   Definitions
      At line 176 in file User\NUC029xx.hs
   Uses
      None
Comment: P2_OFFD unused
P2_PIN 00000090

Symbol: P2_PIN
   Definitions
      At line 179 in file User\NUC029xx.hs
   Uses
      None
Comment: P2_PIN unused
P2_PMD 00000080

Symbol: P2_PMD
   Definitions
      At line 175 in file User\NUC029xx.hs
   Uses
      None
Comment: P2_PMD unused
P30_DOUT 00000260

Symbol: P30_DOUT
   Definitions
      At line 234 in file User\NUC029xx.hs
   Uses
      None
Comment: P30_DOUT unused
P31_DOUT 00000264

Symbol: P31_DOUT
   Definitions
      At line 235 in file User\NUC029xx.hs
   Uses
      None
Comment: P31_DOUT unused
P32_DOUT 00000268

Symbol: P32_DOUT
   Definitions
      At line 236 in file User\NUC029xx.hs
   Uses
      None
Comment: P32_DOUT unused
P33_DOUT 0000026C

Symbol: P33_DOUT
   Definitions



ARM Macro Assembler    Page 27 Alphabetic symbol ordering
Absolute symbols

      At line 237 in file User\NUC029xx.hs
   Uses
      None
Comment: P33_DOUT unused
P34_DOUT 00000270

Symbol: P34_DOUT
   Definitions
      At line 238 in file User\NUC029xx.hs
   Uses
      None
Comment: P34_DOUT unused
P35_DOUT 00000274

Symbol: P35_DOUT
   Definitions
      At line 239 in file User\NUC029xx.hs
   Uses
      None
Comment: P35_DOUT unused
P36_DOUT 00000278

Symbol: P36_DOUT
   Definitions
      At line 240 in file User\NUC029xx.hs
   Uses
      None
Comment: P36_DOUT unused
P37_DOUT 0000027C

Symbol: P37_DOUT
   Definitions
      At line 241 in file User\NUC029xx.hs
   Uses
      None
Comment: P37_DOUT unused
P3_DBEN 000000D4

Symbol: P3_DBEN
   Definitions
      At line 190 in file User\NUC029xx.hs
   Uses
      None
Comment: P3_DBEN unused
P3_DMASK 000000CC

Symbol: P3_DMASK
   Definitions
      At line 188 in file User\NUC029xx.hs
   Uses
      None
Comment: P3_DMASK unused
P3_DOUT 000000C8

Symbol: P3_DOUT
   Definitions
      At line 187 in file User\NUC029xx.hs
   Uses
      None



ARM Macro Assembler    Page 28 Alphabetic symbol ordering
Absolute symbols

Comment: P3_DOUT unused
P3_IEN 000000DC

Symbol: P3_IEN
   Definitions
      At line 192 in file User\NUC029xx.hs
   Uses
      None
Comment: P3_IEN unused
P3_IMD 000000D8

Symbol: P3_IMD
   Definitions
      At line 191 in file User\NUC029xx.hs
   Uses
      None
Comment: P3_IMD unused
P3_ISRC 000000E0

Symbol: P3_ISRC
   Definitions
      At line 193 in file User\NUC029xx.hs
   Uses
      None
Comment: P3_ISRC unused
P3_MFP 0000003C

Symbol: P3_MFP
   Definitions
      At line 63 in file User\NUC029xx.hs
   Uses
      None
Comment: P3_MFP unused
P3_OFFD 000000C4

Symbol: P3_OFFD
   Definitions
      At line 186 in file User\NUC029xx.hs
   Uses
      None
Comment: P3_OFFD unused
P3_PIN 000000D0

Symbol: P3_PIN
   Definitions
      At line 189 in file User\NUC029xx.hs
   Uses
      None
Comment: P3_PIN unused
P3_PMD 000000C0

Symbol: P3_PMD
   Definitions
      At line 185 in file User\NUC029xx.hs
   Uses
      None
Comment: P3_PMD unused
P40_DOUT 00000280




ARM Macro Assembler    Page 29 Alphabetic symbol ordering
Absolute symbols

Symbol: P40_DOUT
   Definitions
      At line 243 in file User\NUC029xx.hs
   Uses
      None
Comment: P40_DOUT unused
P41_DOUT 00000284

Symbol: P41_DOUT
   Definitions
      At line 244 in file User\NUC029xx.hs
   Uses
      None
Comment: P41_DOUT unused
P42_DOUT 00000288

Symbol: P42_DOUT
   Definitions
      At line 245 in file User\NUC029xx.hs
   Uses
      None
Comment: P42_DOUT unused
P43_DOUT 0000028C

Symbol: P43_DOUT
   Definitions
      At line 246 in file User\NUC029xx.hs
   Uses
      None
Comment: P43_DOUT unused
P44_DOUT 00000290

Symbol: P44_DOUT
   Definitions
      At line 247 in file User\NUC029xx.hs
   Uses
      None
Comment: P44_DOUT unused
P45_DOUT 00000294

Symbol: P45_DOUT
   Definitions
      At line 248 in file User\NUC029xx.hs
   Uses
      None
Comment: P45_DOUT unused
P46_DOUT 00000298

Symbol: P46_DOUT
   Definitions
      At line 249 in file User\NUC029xx.hs
   Uses
      None
Comment: P46_DOUT unused
P47_DOUT 0000029C

Symbol: P47_DOUT
   Definitions
      At line 250 in file User\NUC029xx.hs



ARM Macro Assembler    Page 30 Alphabetic symbol ordering
Absolute symbols

   Uses
      None
Comment: P47_DOUT unused
P4_DBEN 00000114

Symbol: P4_DBEN
   Definitions
      At line 200 in file User\NUC029xx.hs
   Uses
      None
Comment: P4_DBEN unused
P4_DMASK 0000010C

Symbol: P4_DMASK
   Definitions
      At line 198 in file User\NUC029xx.hs
   Uses
      None
Comment: P4_DMASK unused
P4_DOUT 00000108

Symbol: P4_DOUT
   Definitions
      At line 197 in file User\NUC029xx.hs
   Uses
      None
Comment: P4_DOUT unused
P4_IEN 0000011C

Symbol: P4_IEN
   Definitions
      At line 202 in file User\NUC029xx.hs
   Uses
      None
Comment: P4_IEN unused
P4_IMD 00000118

Symbol: P4_IMD
   Definitions
      At line 201 in file User\NUC029xx.hs
   Uses
      None
Comment: P4_IMD unused
P4_ISRC 00000120

Symbol: P4_ISRC
   Definitions
      At line 203 in file User\NUC029xx.hs
   Uses
      None
Comment: P4_ISRC unused
P4_MFP 00000040

Symbol: P4_MFP
   Definitions
      At line 64 in file User\NUC029xx.hs
   Uses
      None
Comment: P4_MFP unused



ARM Macro Assembler    Page 31 Alphabetic symbol ordering
Absolute symbols

P4_OFFD 00000104

Symbol: P4_OFFD
   Definitions
      At line 196 in file User\NUC029xx.hs
   Uses
      None
Comment: P4_OFFD unused
P4_PIN 00000110

Symbol: P4_PIN
   Definitions
      At line 199 in file User\NUC029xx.hs
   Uses
      None
Comment: P4_PIN unused
P4_PMD 00000100

Symbol: P4_PMD
   Definitions
      At line 195 in file User\NUC029xx.hs
   Uses
      None
Comment: P4_PMD unused
PCR 00000008

Symbol: PCR
   Definitions
      At line 274 in file User\NUC029xx.hs
   Uses
      None
Comment: PCR unused
PDID 00000000

Symbol: PDID
   Definitions
      At line 53 in file User\NUC029xx.hs
   Uses
      None
Comment: PDID unused
PDR0 00000014

Symbol: PDR0
   Definitions
      At line 278 in file User\NUC029xx.hs
   Uses
      None
Comment: PDR0 unused
PDR1 00000020

Symbol: PDR1
   Definitions
      At line 282 in file User\NUC029xx.hs
   Uses
      None
Comment: PDR1 unused
PDR2 0000002C

Symbol: PDR2



ARM Macro Assembler    Page 32 Alphabetic symbol ordering
Absolute symbols

   Definitions
      At line 286 in file User\NUC029xx.hs
   Uses
      None
Comment: PDR2 unused
PDR3 00000038

Symbol: PDR3
   Definitions
      At line 290 in file User\NUC029xx.hs
   Uses
      None
Comment: PDR3 unused
PIER 00000040

Symbol: PIER
   Definitions
      At line 292 in file User\NUC029xx.hs
   Uses
      None
Comment: PIER unused
PIIR 00000044

Symbol: PIIR
   Definitions
      At line 293 in file User\NUC029xx.hs
   Uses
      None
Comment: PIIR unused
PLLCON 00000020

Symbol: PLLCON
   Definitions
      At line 148 in file User\NUC029xx.hs
   Uses
      None
Comment: PLLCON unused
POE 0000007C

Symbol: POE
   Definitions
      At line 311 in file User\NUC029xx.hs
   Uses
      None
Comment: POE unused
PORCR 00000024

Symbol: PORCR
   Definitions
      At line 59 in file User\NUC029xx.hs
   Uses
      None
Comment: PORCR unused
PPR 00000000

Symbol: PPR
   Definitions
      At line 272 in file User\NUC029xx.hs
   Uses



ARM Macro Assembler    Page 33 Alphabetic symbol ordering
Absolute symbols

      None
Comment: PPR unused
PWMA_BA 40040000

Symbol: PWMA_BA
   Definitions
      At line 28 in file User\NUC029xx.hs
   Uses
      At line 889 in file User\Main.s
      At line 929 in file User\Main.s

PWMB_BA 40140000

Symbol: PWMB_BA
   Definitions
      At line 33 in file User\NUC029xx.hs
   Uses
      At line 838 in file User\Main.s
Comment: PWMB_BA used once
PWRCON 00000000

Symbol: PWRCON
   Definitions
      At line 140 in file User\NUC029xx.hs
   Uses
      None
Comment: PWRCON unused
REGWRPROT 00000100

Symbol: REGWRPROT
   Definitions
      At line 65 in file User\NUC029xx.hs
   Uses
      None
Comment: REGWRPROT unused
RSTSRC 00000004

Symbol: RSTSRC
   Definitions
      At line 54 in file User\NUC029xx.hs
   Uses
      None
Comment: RSTSRC unused
SCB_BA E000ED00

Symbol: SCB_BA
   Definitions
      At line 13 in file User\NUC029xx.hs
   Uses
      None
Comment: SCB_BA unused
SCR 00000010

Symbol: SCR
   Definitions
      At line 134 in file User\NUC029xx.hs
   Uses
      None
Comment: SCR unused



ARM Macro Assembler    Page 34 Alphabetic symbol ordering
Absolute symbols

SCS_BA E000E000

Symbol: SCS_BA
   Definitions
      At line 10 in file User\NUC029xx.hs
   Uses
      At line 463 in file User\Main.s
Comment: SCS_BA used once
SHPR2 0000001C

Symbol: SHPR2
   Definitions
      At line 135 in file User\NUC029xx.hs
   Uses
      None
Comment: SHPR2 unused
SHPR3 00000020

Symbol: SHPR3
   Definitions
      At line 136 in file User\NUC029xx.hs
   Uses
      None
Comment: SHPR3 unused
SPI0_BA 40030000

Symbol: SPI0_BA
   Definitions
      At line 26 in file User\NUC029xx.hs
   Uses
      None
Comment: SPI0_BA unused
SPI1_BA 40034000

Symbol: SPI1_BA
   Definitions
      At line 27 in file User\NUC029xx.hs
   Uses
      None
Comment: SPI1_BA unused
SPI_CNTRL 00000000

Symbol: SPI_CNTRL
   Definitions
      At line 315 in file User\NUC029xx.hs
   Uses
      None
Comment: SPI_CNTRL unused
SPI_CNTRL2 0000003C

Symbol: SPI_CNTRL2
   Definitions
      At line 323 in file User\NUC029xx.hs
   Uses
      None
Comment: SPI_CNTRL2 unused
SPI_DIVIDER 00000004

Symbol: SPI_DIVIDER



ARM Macro Assembler    Page 35 Alphabetic symbol ordering
Absolute symbols

   Definitions
      At line 316 in file User\NUC029xx.hs
   Uses
      None
Comment: SPI_DIVIDER unused
SPI_RX0 00000010

Symbol: SPI_RX0
   Definitions
      At line 318 in file User\NUC029xx.hs
   Uses
      None
Comment: SPI_RX0 unused
SPI_RX1 00000014

Symbol: SPI_RX1
   Definitions
      At line 319 in file User\NUC029xx.hs
   Uses
      None
Comment: SPI_RX1 unused
SPI_SSR 00000008

Symbol: SPI_SSR
   Definitions
      At line 317 in file User\NUC029xx.hs
   Uses
      None
Comment: SPI_SSR unused
SPI_TX0 00000020

Symbol: SPI_TX0
   Definitions
      At line 320 in file User\NUC029xx.hs
   Uses
      None
Comment: SPI_TX0 unused
SPI_TX1 00000024

Symbol: SPI_TX1
   Definitions
      At line 321 in file User\NUC029xx.hs
   Uses
      None
Comment: SPI_TX1 unused
SPI_VARCLK 00000034

Symbol: SPI_VARCLK
   Definitions
      At line 322 in file User\NUC029xx.hs
   Uses
      None
Comment: SPI_VARCLK unused
SRAM_BA 20000000

Symbol: SRAM_BA
   Definitions
      At line 5 in file User\NUC029xx.hs
   Uses



ARM Macro Assembler    Page 36 Alphabetic symbol ordering
Absolute symbols

      None
Comment: SRAM_BA unused
SYST_BA E000E010

Symbol: SYST_BA
   Definitions
      At line 12 in file User\NUC029xx.hs
   Uses
      None
Comment: SYST_BA unused
SYST_CSR 00000010

Symbol: SYST_CSR
   Definitions
      At line 70 in file User\NUC029xx.hs
   Uses
      At line 469 in file User\Main.s
      At line 476 in file User\Main.s

SYST_CVR 00000018

Symbol: SYST_CVR
   Definitions
      At line 72 in file User\NUC029xx.hs
   Uses
      At line 467 in file User\Main.s
Comment: SYST_CVR used once
SYST_RVR 00000014

Symbol: SYST_RVR
   Definitions
      At line 71 in file User\NUC029xx.hs
   Uses
      At line 465 in file User\Main.s
Comment: SYST_RVR used once
TCAP0 00000010

Symbol: TCAP0
   Definitions
      At line 331 in file User\NUC029xx.hs
   Uses
      None
Comment: TCAP0 unused
TCAP1 00000030

Symbol: TCAP1
   Definitions
      At line 338 in file User\NUC029xx.hs
   Uses
      None
Comment: TCAP1 unused
TCAP2 00000010

Symbol: TCAP2
   Definitions
      At line 347 in file User\NUC029xx.hs
   Uses
      None
Comment: TCAP2 unused



ARM Macro Assembler    Page 37 Alphabetic symbol ordering
Absolute symbols

TCAP3 00000030

Symbol: TCAP3
   Definitions
      At line 354 in file User\NUC029xx.hs
   Uses
      None
Comment: TCAP3 unused
TCMPR0 00000004

Symbol: TCMPR0
   Definitions
      At line 328 in file User\NUC029xx.hs
   Uses
      None
Comment: TCMPR0 unused
TCMPR1 00000024

Symbol: TCMPR1
   Definitions
      At line 335 in file User\NUC029xx.hs
   Uses
      None
Comment: TCMPR1 unused
TCMPR2 00000004

Symbol: TCMPR2
   Definitions
      At line 344 in file User\NUC029xx.hs
   Uses
      None
Comment: TCMPR2 unused
TCMPR3 00000024

Symbol: TCMPR3
   Definitions
      At line 351 in file User\NUC029xx.hs
   Uses
      None
Comment: TCMPR3 unused
TCSR0 00000000

Symbol: TCSR0
   Definitions
      At line 327 in file User\NUC029xx.hs
   Uses
      None
Comment: TCSR0 unused
TCSR1 00000020

Symbol: TCSR1
   Definitions
      At line 334 in file User\NUC029xx.hs
   Uses
      None
Comment: TCSR1 unused
TCSR2 00000000

Symbol: TCSR2



ARM Macro Assembler    Page 38 Alphabetic symbol ordering
Absolute symbols

   Definitions
      At line 343 in file User\NUC029xx.hs
   Uses
      None
Comment: TCSR2 unused
TCSR3 00000020

Symbol: TCSR3
   Definitions
      At line 350 in file User\NUC029xx.hs
   Uses
      None
Comment: TCSR3 unused
TDR0 0000000C

Symbol: TDR0
   Definitions
      At line 330 in file User\NUC029xx.hs
   Uses
      None
Comment: TDR0 unused
TDR1 0000002C

Symbol: TDR1
   Definitions
      At line 337 in file User\NUC029xx.hs
   Uses
      None
Comment: TDR1 unused
TDR2 0000000C

Symbol: TDR2
   Definitions
      At line 346 in file User\NUC029xx.hs
   Uses
      None
Comment: TDR2 unused
TDR3 0000002C

Symbol: TDR3
   Definitions
      At line 353 in file User\NUC029xx.hs
   Uses
      None
Comment: TDR3 unused
TEMPCR 0000001C

Symbol: TEMPCR
   Definitions
      At line 58 in file User\NUC029xx.hs
   Uses
      None
Comment: TEMPCR unused
TEXCON0 00000014

Symbol: TEXCON0
   Definitions
      At line 332 in file User\NUC029xx.hs
   Uses



ARM Macro Assembler    Page 39 Alphabetic symbol ordering
Absolute symbols

      None
Comment: TEXCON0 unused
TEXCON1 00000034

Symbol: TEXCON1
   Definitions
      At line 339 in file User\NUC029xx.hs
   Uses
      None
Comment: TEXCON1 unused
TEXCON2 00000014

Symbol: TEXCON2
   Definitions
      At line 348 in file User\NUC029xx.hs
   Uses
      None
Comment: TEXCON2 unused
TEXCON3 00000034

Symbol: TEXCON3
   Definitions
      At line 355 in file User\NUC029xx.hs
   Uses
      None
Comment: TEXCON3 unused
TEXISR0 00000018

Symbol: TEXISR0
   Definitions
      At line 333 in file User\NUC029xx.hs
   Uses
      None
Comment: TEXISR0 unused
TEXISR1 00000038

Symbol: TEXISR1
   Definitions
      At line 340 in file User\NUC029xx.hs
   Uses
      None
Comment: TEXISR1 unused
TEXISR2 00000018

Symbol: TEXISR2
   Definitions
      At line 349 in file User\NUC029xx.hs
   Uses
      None
Comment: TEXISR2 unused
TEXISR3 00000038

Symbol: TEXISR3
   Definitions
      At line 356 in file User\NUC029xx.hs
   Uses
      None
Comment: TEXISR3 unused
TISR0 00000008



ARM Macro Assembler    Page 40 Alphabetic symbol ordering
Absolute symbols


Symbol: TISR0
   Definitions
      At line 329 in file User\NUC029xx.hs
   Uses
      None
Comment: TISR0 unused
TISR1 00000028

Symbol: TISR1
   Definitions
      At line 336 in file User\NUC029xx.hs
   Uses
      None
Comment: TISR1 unused
TISR2 00000008

Symbol: TISR2
   Definitions
      At line 345 in file User\NUC029xx.hs
   Uses
      None
Comment: TISR2 unused
TISR3 00000028

Symbol: TISR3
   Definitions
      At line 352 in file User\NUC029xx.hs
   Uses
      None
Comment: TISR3 unused
TMR01_BA 40010000

Symbol: TMR01_BA
   Definitions
      At line 24 in file User\NUC029xx.hs
   Uses
      At line 703 in file User\Main.s
      At line 711 in file User\Main.s
      At line 731 in file User\Main.s

TMR23_BA 40110000

Symbol: TMR23_BA
   Definitions
      At line 32 in file User\NUC029xx.hs
   Uses
      None
Comment: TMR23_BA unused
UART0_BA 40050000

Symbol: UART0_BA
   Definitions
      At line 29 in file User\NUC029xx.hs
   Uses
      At line 786 in file User\Main.s
      At line 790 in file User\Main.s
      At line 797 in file User\Main.s




ARM Macro Assembler    Page 41 Alphabetic symbol ordering
Absolute symbols

UART1_BA 40150000

Symbol: UART1_BA
   Definitions
      At line 34 in file User\NUC029xx.hs
   Uses
      None
Comment: UART1_BA unused
UA_ALT_CSR 0000002C

Symbol: UA_ALT_CSR
   Definitions
      At line 376 in file User\NUC029xx.hs
   Uses
      None
Comment: UA_ALT_CSR unused
UA_BAUD 00000024

Symbol: UA_BAUD
   Definitions
      At line 374 in file User\NUC029xx.hs
   Uses
      None
Comment: UA_BAUD unused
UA_FCR 00000008

Symbol: UA_FCR
   Definitions
      At line 367 in file User\NUC029xx.hs
   Uses
      None
Comment: UA_FCR unused
UA_FSR 00000018

Symbol: UA_FSR
   Definitions
      At line 371 in file User\NUC029xx.hs
   Uses
      None
Comment: UA_FSR unused
UA_FUN_SEL 00000030

Symbol: UA_FUN_SEL
   Definitions
      At line 377 in file User\NUC029xx.hs
   Uses
      None
Comment: UA_FUN_SEL unused
UA_IER 00000004

Symbol: UA_IER
   Definitions
      At line 366 in file User\NUC029xx.hs
   Uses
      None
Comment: UA_IER unused
UA_IRCR 00000028

Symbol: UA_IRCR



ARM Macro Assembler    Page 42 Alphabetic symbol ordering
Absolute symbols

   Definitions
      At line 375 in file User\NUC029xx.hs
   Uses
      None
Comment: UA_IRCR unused
UA_ISR 0000001C

Symbol: UA_ISR
   Definitions
      At line 372 in file User\NUC029xx.hs
   Uses
      None
Comment: UA_ISR unused
UA_LCR 0000000C

Symbol: UA_LCR
   Definitions
      At line 368 in file User\NUC029xx.hs
   Uses
      None
Comment: UA_LCR unused
UA_MCR 00000010

Symbol: UA_MCR
   Definitions
      At line 369 in file User\NUC029xx.hs
   Uses
      None
Comment: UA_MCR unused
UA_MSR 00000014

Symbol: UA_MSR
   Definitions
      At line 370 in file User\NUC029xx.hs
   Uses
      None
Comment: UA_MSR unused
UA_RBR 00000000

Symbol: UA_RBR
   Definitions
      At line 364 in file User\NUC029xx.hs
   Uses
      None
Comment: UA_RBR unused
UA_THR 00000000

Symbol: UA_THR
   Definitions
      At line 365 in file User\NUC029xx.hs
   Uses
      None
Comment: UA_THR unused
UA_TOR 00000020

Symbol: UA_TOR
   Definitions
      At line 373 in file User\NUC029xx.hs
   Uses



ARM Macro Assembler    Page 43 Alphabetic symbol ordering
Absolute symbols

      None
Comment: UA_TOR unused
WDT_BA 40004000

Symbol: WDT_BA
   Definitions
      At line 23 in file User\NUC029xx.hs
   Uses
      At line 665 in file User\Main.s
      At line 681 in file User\Main.s
      At line 687 in file User\Main.s

WTCR 00000000

Symbol: WTCR
   Definitions
      At line 360 in file User\NUC029xx.hs
   Uses
      None
Comment: WTCR unused
308 symbols
1021 symbols in table
